STMicroelectronics list file postprocessor v1.01   (C)2009-2023   Sat Aug 12 20:15:59 2023
Page 1  Assembler
                                               c:\program files (x86)\stmicroelectronics\st_toolset\stvd\watch\procedures.asm

   1                         stm8/     
   0  000000                                 #include "STM8L051F3.inc"
   1                         ; STM8L051F3.inc
   2                         
   3                         ; Copyright (c) 2003-2017 STMicroelectronics
   4                         
   5  000000 U                               #ifdef   __STM8L051F3__
   8  000000                                 #define  __STM8L051F3__ 1
   9                         
  10                         ; STM8L051F3
  11                         
  12                         
  13                         ; Port A
  14                         ;;;;;;;;;;;;;;;;;;;;;;;;;;;;;;;;;;;;;;;;;;;;;;;;;;;;;;;;;;;;;;
                               ;;;;;;
  15                         
  16  000000                                 EXTERN   PA_ODR.w      ; Port A data output latch 
                                                                ;register
  17                         
  18  000000                                 EXTERN   PA_IDR.w      ; Port A input pin value 
                                                                ;register
  19                         
  20  000000                                 EXTERN   PA_DDR.w      ; Port A data direction 
                                                                ;register
  21                         
  22  000000                                 EXTERN   PA_CR1.w      ; Port A control register 1
  23                         
  24  000000                                 EXTERN   PA_CR2.w      ; Port A control register 2
  25                         
  26                         ; Port B
  27                         ;;;;;;;;;;;;;;;;;;;;;;;;;;;;;;;;;;;;;;;;;;;;;;;;;;;;;;;;;;;;;;
                               ;;;;;;
  28                         
  29  000000                                 EXTERN   PB_ODR.w      ; Port B data output latch 
                                                                ;register
  30                         
  31  000000                                 EXTERN   PB_IDR.w      ; Port B input pin value 
                                                                ;register
  32                         
  33  000000                                 EXTERN   PB_DDR.w      ; Port B data direction 
                                                                ;register
  34                         
  35  000000                                 EXTERN   PB_CR1.w      ; Port B control register 1
  36                         
  37  000000                                 EXTERN   PB_CR2.w      ; Port B control register 2
  38                         
  39                         ; Port C
  40                         ;;;;;;;;;;;;;;;;;;;;;;;;;;;;;;;;;;;;;;;;;;;;;;;;;;;;;;;;;;;;;;
                               ;;;;;;
  41                         
  42  000000                                 EXTERN   PC_ODR.w      ; Port C data output latch 
                                                                ;register
  43                         
  44  000000                                 EXTERN   PC_IDR.w      ; Port C input pin value 
                                                                ;register
  45                         
  46  000000                                 EXTERN   PC_DDR.w      ; Port C data direction 
STMicroelectronics list file postprocessor v1.01   (C)2009-2023   Sat Aug 12 20:15:59 2023
Page 2  Assembler
                                               c:\program files (x86)\stmicroelectronics\st_toolset\stvd\watch\procedures.asm

                                                                ;register
  47                         
  48  000000                                 EXTERN   PC_CR1.w      ; Port C control register 1
  49                         
  50  000000                                 EXTERN   PC_CR2.w      ; Port C control register 2
  51                         
  52                         ; Port D
  53                         ;;;;;;;;;;;;;;;;;;;;;;;;;;;;;;;;;;;;;;;;;;;;;;;;;;;;;;;;;;;;;;
                               ;;;;;;
  54                         
  55  000000                                 EXTERN   PD_ODR.w      ; Port D data output latch 
                                                                ;register
  56                         
  57  000000                                 EXTERN   PD_IDR.w      ; Port D input pin value 
                                                                ;register
  58                         
  59  000000                                 EXTERN   PD_DDR.w      ; Port D data direction 
                                                                ;register
  60                         
  61  000000                                 EXTERN   PD_CR1.w      ; Port D control register 1
  62                         
  63  000000                                 EXTERN   PD_CR2.w      ; Port D control register 2
  64                         
  65                         ; Flash
  66                         ;;;;;;;;;;;;;;;;;;;;;;;;;;;;;;;;;;;;;;;;;;;;;;;;;;;;;;;;;;;;;;
                               ;;;;;;
  67                         
  68  000000                                 EXTERN   FLASH_CR1.w   ; Flash control register 1
  69                         
  70  000000                                 EXTERN   FLASH_CR2.w   ; Flash control register 2
  71                         
  72  000000                                 EXTERN   FLASH_PUKR.w  ; Flash Program memory 
                                                                ;unprotection register
  73                         
  74  000000                                 EXTERN   FLASH_DUKR.w  ; Data EEPROM unprotection 
                                                                ;register
  75                         
  76  000000                                 EXTERN   FLASH_IAPSR.w  ; Flash in-application 
                                                                ;programming status register
  77                         
  78                         ; Direct memory access controller 1 (DMA1)
  79                         ;;;;;;;;;;;;;;;;;;;;;;;;;;;;;;;;;;;;;;;;;;;;;;;;;;;;;;;;;;;;;;
                               ;;;;;;
  80                         
  81  000000                                 EXTERN   DMA1_GCSR.w   ; DMA1 global configuration & 
                                                                ;status register
  82                         
  83  000000                                 EXTERN   DMA1_GIR1.w   ; DMA1 global interrupt register
                                                                ; 1
  84                         
  85  000000                                 EXTERN   DMA1_C0CR.w   ; DMA1 channel 0 configuration 
                                                                ;register
  86                         
  87  000000                                 EXTERN   DMA1_C0SPR.w  ; DMA1 channel 0 status & 
                                                                ;priority register
  88                         
  89  000000                                 EXTERN   DMA1_C0NDTR.w  ; DMA1 number of data to 
STMicroelectronics list file postprocessor v1.01   (C)2009-2023   Sat Aug 12 20:15:59 2023
Page 3  Assembler
                                               c:\program files (x86)\stmicroelectronics\st_toolset\stvd\watch\procedures.asm

                                                                ;transfer register (channel 0)
  90                         
  91  000000                                 EXTERN   DMA1_C0PARH.w  ; DMA peripheral address high 
                                                                ;register (channel 0)
  92                         
  93  000000                                 EXTERN   DMA1_C0PARL.w  ; DMA peripheral address low 
                                                                ;register (channel 0)
  94                         
  95  000000                                 EXTERN   DMA1_C0M0ARH.w  ; DMA memory address high 
                                                                ;register (channel 0)
  96                         
  97  000000                                 EXTERN   DMA1_C0M0ARL.w  ; DMA memory address low 
                                                                ;register (channel 0)
  98                         
  99  000000                                 EXTERN   DMA1_C1CR.w   ; DMA1 channel 1 configuration 
                                                                ;register
 100                         
 101  000000                                 EXTERN   DMA1_C1SPR.w  ; DMA1 channel 1 status & 
                                                                ;priority register
 102                         
 103  000000                                 EXTERN   DMA1_C1NDTR.w  ; DMA1 number of data to 
                                                                ;transfer register (channel 1)
 104                         
 105  000000                                 EXTERN   DMA1_C1PARH.w  ; DMA peripheral address high 
                                                                ;register (channel 1)
 106                         
 107  000000                                 EXTERN   DMA1_C1PARL.w  ; DMA peripheral address low 
                                                                ;register (channel 1)
 108                         
 109  000000                                 EXTERN   DMA1_C1M0ARH.w  ; DMA memory address high 
                                                                ;register (channel 1)
 110                         
 111  000000                                 EXTERN   DMA1_C1M0ARL.w  ; DMA memory address low 
                                                                ;register (channel 1)
 112                         
 113  000000                                 EXTERN   DMA1_C2CR.w   ; DMA1 channel 2 configuration 
                                                                ;register
 114                         
 115  000000                                 EXTERN   DMA1_C2SPR.w  ; DMA1 channel 2 status & 
                                                                ;priority register
 116                         
 117  000000                                 EXTERN   DMA1_C2NDTR.w  ; DMA1 number of data to 
                                                                ;transfer register (channel 2)
 118                         
 119  000000                                 EXTERN   DMA1_C2PARH.w  ; DMA peripheral address high 
                                                                ;register (channel 2)
 120                         
 121  000000                                 EXTERN   DMA1_C2PARL.w  ; DMA peripheral address low 
                                                                ;register (channel 2)
 122                         
 123  000000                                 EXTERN   DMA1_C2M0ARH.w  ; DMA memory address high 
                                                                ;register (channel 2)
 124                         
 125  000000                                 EXTERN   DMA1_C2M0ARL.w  ; DMA memory address low 
                                                                ;register (channel 2)
 126                         
 127  000000                                 EXTERN   DMA1_C3CR.w   ; DMA1 channel 3 configuration 
STMicroelectronics list file postprocessor v1.01   (C)2009-2023   Sat Aug 12 20:15:59 2023
Page 4  Assembler
                                               c:\program files (x86)\stmicroelectronics\st_toolset\stvd\watch\procedures.asm

                                                                ;register
 128                         
 129  000000                                 EXTERN   DMA1_C3SPR.w  ; DMA1 channel 3 status & 
                                                                ;priority register
 130                         
 131  000000                                 EXTERN   DMA1_C3NDTR.w  ; DMA1 number of data to 
                                                                ;transfer register (channel 3)
 132                         
 133  000000                                 EXTERN   DMA1_C3PARH_C3M1ARH.w  ; DMA1 peripheral address high 
                                                                ;register (channel 3)
 134                         
 135  000000                                 EXTERN   DMA1_C3PARL_C3M1ARL.w  ; DMA1 peripheral address low 
                                                                ;register (channel 3)
 136                         
 137  000000                                 EXTERN   DMA_C3M0EAR.w  ; DMA channel 3 memory 0 
                                                                ;extended address register
 138                         
 139  000000                                 EXTERN   DMA1_C3M0ARH.w  ; DMA memory address high 
                                                                ;register (channel 3)
 140                         
 141  000000                                 EXTERN   DMA1_C3M0ARL.w  ; DMA memory address low 
                                                                ;register (channel 3)
 142                         
 143                         ; System configuration (SYSCFG)
 144                         ;;;;;;;;;;;;;;;;;;;;;;;;;;;;;;;;;;;;;;;;;;;;;;;;;;;;;;;;;;;;;;
                               ;;;;;;
 145                         
 146  000000                                 EXTERN   SYSCFG_RMPCR3.w  ; Remapping register 3
 147                         
 148  000000                                 EXTERN   SYSCFG_RMPCR1.w  ; Remapping register 1
 149                         
 150  000000                                 EXTERN   SYSCFG_RMPCR2.w  ; Remapping register 2
 151                         
 152                         ; External Interrupt Control Register (ITC)
 153                         ;;;;;;;;;;;;;;;;;;;;;;;;;;;;;;;;;;;;;;;;;;;;;;;;;;;;;;;;;;;;;;
                               ;;;;;;
 154                         
 155  000000                                 EXTERN   EXTI_CR1.w    ; External interrupt control 
                                                                ;register 1
 156                         
 157  000000                                 EXTERN   EXTI_CR2.w    ; External interrupt control 
                                                                ;register 2
 158                         
 159  000000                                 EXTERN   EXTI_CR3.w    ; External interrupt control 
                                                                ;register 3
 160                         
 161  000000                                 EXTERN   EXTI_SR1.w    ; External interrupt status 
                                                                ;register 1
 162                         
 163  000000                                 EXTERN   EXTI_SR2.w    ; External interrupt status 
                                                                ;register 2
 164                         
 165  000000                                 EXTERN   EXTI_CONF1.w  ; External interrupt port select
                                                                ; register 1
 166                         
 167                         ; Wait For Event (WFE)
 168                         ;;;;;;;;;;;;;;;;;;;;;;;;;;;;;;;;;;;;;;;;;;;;;;;;;;;;;;;;;;;;;;
STMicroelectronics list file postprocessor v1.01   (C)2009-2023   Sat Aug 12 20:15:59 2023
Page 5  Assembler
                                               c:\program files (x86)\stmicroelectronics\st_toolset\stvd\watch\procedures.asm

                               ;;;;;;
 169                         
 170  000000                                 EXTERN   WFE_CR1.w     ; WFE control register 1
 171                         
 172  000000                                 EXTERN   WFE_CR2.w     ; WFE control register 2
 173                         
 174  000000                                 EXTERN   WFE_CR3.w     ; WFE control register 3
 175                         
 176  000000                                 EXTERN   WFE_CR4.w     ; WFE control register 4
 177                         
 178                         ; External Interrupt Control Register (ITC)
 179                         ;;;;;;;;;;;;;;;;;;;;;;;;;;;;;;;;;;;;;;;;;;;;;;;;;;;;;;;;;;;;;;
                               ;;;;;;
 180                         
 181  000000                                 EXTERN   EXTI_CR4.w    ; External interrupt control 
                                                                ;register 4
 182                         
 183  000000                                 EXTERN   EXTI_CONF2.w  ; External interrupt port select
                                                                ; register 2
 184                         
 185                         ; Reset (RST)
 186                         ;;;;;;;;;;;;;;;;;;;;;;;;;;;;;;;;;;;;;;;;;;;;;;;;;;;;;;;;;;;;;;
                               ;;;;;;
 187                         
 188  000000                                 EXTERN   RST_CR.w      ; Reset control register
 189                         
 190  000000                                 EXTERN   RST_SR.w      ; Reset status register
 191                         
 192                         ; Power control (PWR)
 193                         ;;;;;;;;;;;;;;;;;;;;;;;;;;;;;;;;;;;;;;;;;;;;;;;;;;;;;;;;;;;;;;
                               ;;;;;;
 194                         
 195  000000                                 EXTERN   PWR_CSR1.w    ; Power control and status 
                                                                ;register 1
 196                         
 197  000000                                 EXTERN   PWR_CSR2.w    ; Power control and status 
                                                                ;register 2
 198                         
 199                         ; Clock Control (CLK)
 200                         ;;;;;;;;;;;;;;;;;;;;;;;;;;;;;;;;;;;;;;;;;;;;;;;;;;;;;;;;;;;;;;
                               ;;;;;;
 201                         
 202  000000                                 EXTERN   CLK_CKDIVR.w  ; System clock divider register
 203                         
 204  000000                                 EXTERN   CLK_CRTCR.w   ; Clock RTC register
 205                         
 206  000000                                 EXTERN   CLK_ICKCR.w   ; Internal clock control 
                                                                ;register
 207                         
 208  000000                                 EXTERN   CLK_PCKENR1.w  ; Peripheral clock gating 
                                                                ;register 1
 209                         
 210  000000                                 EXTERN   CLK_PCKENR2.w  ; Peripheral clock gating 
                                                                ;register 2
 211                         
 212  000000                                 EXTERN   CLK_CCOR.w    ; Configurable clock control 
                                                                ;register
STMicroelectronics list file postprocessor v1.01   (C)2009-2023   Sat Aug 12 20:15:59 2023
Page 6  Assembler
                                               c:\program files (x86)\stmicroelectronics\st_toolset\stvd\watch\procedures.asm

 213                         
 214  000000                                 EXTERN   CLK_ECKCR.w   ; External clock control 
                                                                ;register
 215                         
 216  000000                                 EXTERN   CLK_SCSR.w    ; System clock status register
 217                         
 218  000000                                 EXTERN   CLK_SWR.w     ; System clock switch register
 219                         
 220  000000                                 EXTERN   CLK_SWCR.w    ; Clock switch control register
 221                         
 222  000000                                 EXTERN   CLK_CSSR.w    ; Clock security system 
                                                                ;register
 223                         
 224  000000                                 EXTERN   CLK_CBEEPR.w  ; Clock BEEP register
 225                         
 226  000000                                 EXTERN   CLK_HSICALR.w  ; HSI calibration register
 227                         
 228  000000                                 EXTERN   CLK_HSITRIMR.w  ; HSI clock calibration trimming
                                                                ; register
 229                         
 230  000000                                 EXTERN   CLK_HSIUNLCKR.w  ; HSI unlock register
 231                         
 232  000000                                 EXTERN   CLK_REGCSR.w  ; Main regulator control status 
                                                                ;register
 233                         
 234  000000                                 EXTERN   CLK_PCKENR3.w  ; Peripheral clock gating 
                                                                ;register 3
 235                         
 236                         ; Window Watchdog (WWDG)
 237                         ;;;;;;;;;;;;;;;;;;;;;;;;;;;;;;;;;;;;;;;;;;;;;;;;;;;;;;;;;;;;;;
                               ;;;;;;
 238                         
 239  000000                                 EXTERN   WWDG_CR.w     ; WWDG Control Register
 240                         
 241  000000                                 EXTERN   WWDG_WR.w     ; WWDR Window Register
 242                         
 243                         ; Independent Watchdog (IWDG)
 244                         ;;;;;;;;;;;;;;;;;;;;;;;;;;;;;;;;;;;;;;;;;;;;;;;;;;;;;;;;;;;;;;
                               ;;;;;;
 245                         
 246  000000                                 EXTERN   IWDG_KR.w     ; IWDG Key Register
 247                         
 248  000000                                 EXTERN   IWDG_PR.w     ; IWDG Prescaler Register
 249                         
 250  000000                                 EXTERN   IWDG_RLR.w    ; IWDG Reload Register
 251                         
 252                         ; Beeper (BEEP)
 253                         ;;;;;;;;;;;;;;;;;;;;;;;;;;;;;;;;;;;;;;;;;;;;;;;;;;;;;;;;;;;;;;
                               ;;;;;;
 254                         
 255  000000                                 EXTERN   BEEP_CSR1.w   ; BEEP Control/Status Register 
                                                                ;1
 256                         
 257  000000                                 EXTERN   BEEP_CSR2.w   ; BEEP Control/Status Register 
                                                                ;2
 258                         
 259                         ; Real-time clock (RTC)
STMicroelectronics list file postprocessor v1.01   (C)2009-2023   Sat Aug 12 20:15:59 2023
Page 7  Assembler
                                               c:\program files (x86)\stmicroelectronics\st_toolset\stvd\watch\procedures.asm

 260                         ;;;;;;;;;;;;;;;;;;;;;;;;;;;;;;;;;;;;;;;;;;;;;;;;;;;;;;;;;;;;;;
                               ;;;;;;
 261                         
 262  000000                                 EXTERN   RTC_TR1.w     ; Time Register 1
 263                         
 264  000000                                 EXTERN   RTC_TR2.w     ; Time Register 2
 265                         
 266  000000                                 EXTERN   RTC_TR3.w     ; Time Register 3
 267                         
 268  000000                                 EXTERN   RTC_DR1.w     ; Date Register 1
 269                         
 270  000000                                 EXTERN   RTC_DR2.w     ; Date Register 2
 271                         
 272  000000                                 EXTERN   RTC_DR3.w     ; Date Register 3
 273                         
 274  000000                                 EXTERN   RTC_CR1.w     ; Control Register 1
 275                         
 276  000000                                 EXTERN   RTC_CR2.w     ; Control Register 2
 277                         
 278  000000                                 EXTERN   RTC_CR3.w     ; Control Register 3
 279                         
 280  000000                                 EXTERN   RTC_ISR1.w    ; Initialization and Status 
                                                                ;Register 1
 281                         
 282  000000                                 EXTERN   RTC_ISR2.w    ; Initialization and Status 
                                                                ;Register 2
 283                         
 284  000000                                 EXTERN   RTC_SPRERH.w  ; Synchronous Prescaler Register
                                                                ; High
 285                         
 286  000000                                 EXTERN   RTC_SPRERL.w  ; Synchronous Prescaler Register
                                                                ; Low
 287                         
 288  000000                                 EXTERN   RTC_APRER.w   ; Asynchronous Prescaler 
                                                                ;Register
 289                         
 290  000000                                 EXTERN   RTC_WUTRH.w   ; Wakeup Timer Register High
 291                         
 292  000000                                 EXTERN   RTC_WUTRL.w   ; Wakeup Timer Register Low
 293                         
 294  000000                                 EXTERN   RTC_SSRH.w    ; Subsecond Register High
 295                         
 296  000000                                 EXTERN   RTC_SSRL.w    ; Subsecond Register Low
 297                         
 298  000000                                 EXTERN   RTC_WPR.w     ; Write Protection Register
 299                         
 300  000000                                 EXTERN   RTC_SHIFTRH.w  ; Shift Register High
 301                         
 302  000000                                 EXTERN   RTC_SHIFTRL.w  ; Shift Register Low
 303                         
 304  000000                                 EXTERN   RTC_ALRMAR1.w  ; Alarm A Register 1
 305                         
 306  000000                                 EXTERN   RTC_ALRMAR2.w  ; Alarm A Register 2
 307                         
 308  000000                                 EXTERN   RTC_ALRMAR3.w  ; Alarm A Register 3
 309                         
 310  000000                                 EXTERN   RTC_ALRMAR4.w  ; Alarm A Register 4
STMicroelectronics list file postprocessor v1.01   (C)2009-2023   Sat Aug 12 20:15:59 2023
Page 8  Assembler
                                               c:\program files (x86)\stmicroelectronics\st_toolset\stvd\watch\procedures.asm

 311                         
 312  000000                                 EXTERN   RTC_ALRMASSRH.w  ; Shift Register High
 313                         
 314  000000                                 EXTERN   RTC_ALRMASSRL.w  ; Shift Register Low
 315                         
 316  000000                                 EXTERN   RTC_ALRMASSMSKR.w  ; Alarm A masking Register
 317                         
 318  000000                                 EXTERN   RTC_CALRH.w   ; Shift Register High
 319                         
 320  000000                                 EXTERN   RTC_CALRL.w   ; Shift Register Low
 321                         
 322  000000                                 EXTERN   RTC_TCR1.w    ; Tamper Control Register 1
 323                         
 324  000000                                 EXTERN   RTC_TCR2.w    ; Tamper Control Register 2
 325                         
 326                         ; Clock Security System (LSE_CSS)
 327                         ;;;;;;;;;;;;;;;;;;;;;;;;;;;;;;;;;;;;;;;;;;;;;;;;;;;;;;;;;;;;;;
                               ;;;;;;
 328                         
 329  000000                                 EXTERN   CSS_LSE_CSR.w  ; CSS on LSE Control and Status 
                                                                ;Register
 330                         
 331                         ; Serial Peripheral Interface 1 (SPI1)
 332                         ;;;;;;;;;;;;;;;;;;;;;;;;;;;;;;;;;;;;;;;;;;;;;;;;;;;;;;;;;;;;;;
                               ;;;;;;
 333                         
 334  000000                                 EXTERN   SPI1_CR1.w    ; SPI1 Control Register 1
 335                         
 336  000000                                 EXTERN   SPI1_CR2.w    ; SPI1 Control Register 2
 337                         
 338  000000                                 EXTERN   SPI1_ICR.w    ; SPI1 Interrupt Control 
                                                                ;Register
 339                         
 340  000000                                 EXTERN   SPI1_SR.w     ; SPI1 Status Register
 341                         
 342  000000                                 EXTERN   SPI1_DR.w     ; SPI1 Data Register
 343                         
 344  000000                                 EXTERN   SPI1_CRCPR.w  ; SPI1 CRC Polynomial Register
 345                         
 346  000000                                 EXTERN   SPI1_RXCRCR.w  ; SPI1 Rx CRC Register
 347                         
 348  000000                                 EXTERN   SPI1_TXCRCR.w  ; SPI1 Tx CRC Register
 349                         
 350                         ; I2C Bus Interface 1 (I2C1)
 351                         ;;;;;;;;;;;;;;;;;;;;;;;;;;;;;;;;;;;;;;;;;;;;;;;;;;;;;;;;;;;;;;
                               ;;;;;;
 352                         
 353  000000                                 EXTERN   I2C1_CR1.w    ; I2C1 control register 1
 354                         
 355  000000                                 EXTERN   I2C1_CR2.w    ; I2C1 control register 2
 356                         
 357  000000                                 EXTERN   I2C1_FREQR.w  ; I2C1 frequency register
 358                         
 359  000000                                 EXTERN   I2C1_OARL.w   ; I2C1 Own address register low
 360                         
 361  000000                                 EXTERN   I2C1_OARH.w   ; I2C1 Own address register 
                                                                ;high
STMicroelectronics list file postprocessor v1.01   (C)2009-2023   Sat Aug 12 20:15:59 2023
Page 9  Assembler
                                               c:\program files (x86)\stmicroelectronics\st_toolset\stvd\watch\procedures.asm

 362                         
 363  000000                                 EXTERN   I2C1_OAR2.w   ; I2C1 Own address register for 
                                                                ;dual mode
 364                         
 365  000000                                 EXTERN   I2C1_DR.w     ; I2C1 data register
 366                         
 367  000000                                 EXTERN   I2C1_SR1.w    ; I2C1 status register 1
 368                         
 369  000000                                 EXTERN   I2C1_SR2.w    ; I2C1 status register 2
 370                         
 371  000000                                 EXTERN   I2C1_SR3.w    ; I2C1 status register 3
 372                         
 373  000000                                 EXTERN   I2C1_ITR.w    ; I2C1 interrupt control 
                                                                ;register
 374                         
 375  000000                                 EXTERN   I2C1_CCRL.w   ; I2C1 Clock control register 
                                                                ;low
 376                         
 377  000000                                 EXTERN   I2C1_CCRH.w   ; I2C1 Clock control register 
                                                                ;high
 378                         
 379  000000                                 EXTERN   I2C1_TRISER.w  ; I2C1 TRISE register
 380                         
 381  000000                                 EXTERN   I2C1_PECR.w   ; I2C1 packet error checking 
                                                                ;register
 382                         
 383                         ; Universal synch/asynch receiver transmitter 1 (USART1)
 384                         ;;;;;;;;;;;;;;;;;;;;;;;;;;;;;;;;;;;;;;;;;;;;;;;;;;;;;;;;;;;;;;
                               ;;;;;;
 385                         
 386  000000                                 EXTERN   USART1_SR.w   ; USART1 Status Register
 387                         
 388  000000                                 EXTERN   USART1_DR.w   ; USART1 Data Register
 389                         
 390  000000                                 EXTERN   USART1_BRR1.w  ; USART1 Baud Rate Register 1
 391                         
 392  000000                                 EXTERN   USART1_BRR2.w  ; USART1 Baud Rate Register 2
 393                         
 394  000000                                 EXTERN   USART1_CR1.w  ; USART1 Control Register 1
 395                         
 396  000000                                 EXTERN   USART1_CR2.w  ; USART1 Control Register 2
 397                         
 398  000000                                 EXTERN   USART1_CR3.w  ; USART1 Control Register 3
 399                         
 400  000000                                 EXTERN   USART1_CR4.w  ; USART1 Control Register 4
 401                         
 402  000000                                 EXTERN   USART1_CR5.w  ; USART1 Control Register 5
 403                         
 404  000000                                 EXTERN   USART1_GTR.w  ; USART1 Guard time Register
 405                         
 406  000000                                 EXTERN   USART1_PSCR.w  ; USART1 Prescaler Register
 407                         
 408                         ; 16-Bit Timer 2 (TIM2)
 409                         ;;;;;;;;;;;;;;;;;;;;;;;;;;;;;;;;;;;;;;;;;;;;;;;;;;;;;;;;;;;;;;
                               ;;;;;;
 410                         
 411  000000                                 EXTERN   TIM2_CR1.w    ; TIM2 Control register 1
STMicroelectronics list file postprocessor v1.01   (C)2009-2023   Sat Aug 12 20:15:59 2023
Page 10  Assembler
                                               c:\program files (x86)\stmicroelectronics\st_toolset\stvd\watch\procedures.asm

 412                         
 413  000000                                 EXTERN   TIM2_CR2.w    ; TIM2 Control register 2
 414                         
 415  000000                                 EXTERN   TIM2_SMCR.w   ; TIM2 Slave Mode Control 
                                                                ;register
 416                         
 417  000000                                 EXTERN   TIM2_ETR.w    ; TIM2 External trigger 
                                                                ;register
 418                         
 419  000000                                 EXTERN   TIM2_DER.w    ; TIM2 DMA request enable 
                                                                ;register
 420                         
 421  000000                                 EXTERN   TIM2_IER.w    ; TIM2 Interrupt enable 
                                                                ;register
 422                         
 423  000000                                 EXTERN   TIM2_SR1.w    ; TIM2 Status register 1
 424                         
 425  000000                                 EXTERN   TIM2_SR2.w    ; TIM2 Status register 2
 426                         
 427  000000                                 EXTERN   TIM2_EGR.w    ; TIM2 Event Generation 
                                                                ;register
 428                         
 429  000000                                 EXTERN   TIM2_CCMR1.w  ; TIM2 Capture/Compare mode 
                                                                ;register 1
 430                         
 431  000000                                 EXTERN   TIM2_CCMR2.w  ; TIM2 Capture/Compare mode 
                                                                ;register 2
 432                         
 433  000000                                 EXTERN   TIM2_CCER1.w  ; TIM2 Capture/Compare enable 
                                                                ;register 1
 434                         
 435  000000                                 EXTERN   TIM2_CNTRH.w  ; TIM2 Counter High
 436                         
 437  000000                                 EXTERN   TIM2_CNTRL.w  ; TIM2 Counter Low
 438                         
 439  000000                                 EXTERN   TIM2_PSCR.w   ; TIM2 Prescaler register
 440                         
 441  000000                                 EXTERN   TIM2_ARRH.w   ; TIM2 Auto-Reload Register 
                                                                ;High
 442                         
 443  000000                                 EXTERN   TIM2_ARRL.w   ; TIM2 Auto-Reload Register Low
 444                         
 445  000000                                 EXTERN   TIM2_CCR1H.w  ; TIM2 Capture/Compare Register 
                                                                ;1 High
 446                         
 447  000000                                 EXTERN   TIM2_CCR1L.w  ; TIM2 Capture/Compare Register 
                                                                ;1 Low
 448                         
 449  000000                                 EXTERN   TIM2_CCR2H.w  ; TIM2 Capture/Compare Register 
                                                                ;2 High
 450                         
 451  000000                                 EXTERN   TIM2_CCR2L.w  ; TIM2 Capture/Compare Register 
                                                                ;2 Low
 452                         
 453  000000                                 EXTERN   TIM2_BKR.w    ; TIM2 Break register
 454                         
 455  000000                                 EXTERN   TIM2_OISR.w   ; TIM2 Output idle state 
STMicroelectronics list file postprocessor v1.01   (C)2009-2023   Sat Aug 12 20:15:59 2023
Page 11  Assembler
                                               c:\program files (x86)\stmicroelectronics\st_toolset\stvd\watch\procedures.asm

                                                                ;register
 456                         
 457                         ; 16-Bit Timer 3 (TIM3)
 458                         ;;;;;;;;;;;;;;;;;;;;;;;;;;;;;;;;;;;;;;;;;;;;;;;;;;;;;;;;;;;;;;
                               ;;;;;;
 459                         
 460  000000                                 EXTERN   TIM3_CR1.w    ; TIM3 Control register 1
 461                         
 462  000000                                 EXTERN   TIM3_CR2.w    ; TIM3 Control register 2
 463                         
 464  000000                                 EXTERN   TIM3_SMCR.w   ; TIM3 Slave Mode Control 
                                                                ;register
 465                         
 466  000000                                 EXTERN   TIM3_ETR.w    ; TIM3 External trigger 
                                                                ;register
 467                         
 468  000000                                 EXTERN   TIM3_DER.w    ; TIM3 DMA request enable 
                                                                ;register
 469                         
 470  000000                                 EXTERN   TIM3_IER.w    ; TIM3 Interrupt enable 
                                                                ;register
 471                         
 472  000000                                 EXTERN   TIM3_SR1.w    ; TIM3 Status register 1
 473                         
 474  000000                                 EXTERN   TIM3_SR2.w    ; TIM3 Status register 2
 475                         
 476  000000                                 EXTERN   TIM3_EGR.w    ; TIM3 Event Generation 
                                                                ;register
 477                         
 478  000000                                 EXTERN   TIM3_CCMR1.w  ; TIM3 Capture/Compare mode 
                                                                ;register 1
 479                         
 480  000000                                 EXTERN   TIM3_CCMR2.w  ; TIM3 Capture/Compare mode 
                                                                ;register 2
 481                         
 482  000000                                 EXTERN   TIM3_CCER1.w  ; TIM3 Capture/Compare enable 
                                                                ;register 1
 483                         
 484  000000                                 EXTERN   TIM3_CNTRH.w  ; TIM3 Counter High
 485                         
 486  000000                                 EXTERN   TIM3_CNTRL.w  ; TIM3 Counter Low
 487                         
 488  000000                                 EXTERN   TIM3_PSCR.w   ; TIM3 Prescaler register
 489                         
 490  000000                                 EXTERN   TIM3_ARRH.w   ; TIM3 Auto-Reload Register 
                                                                ;High
 491                         
 492  000000                                 EXTERN   TIM3_ARRL.w   ; TIM3 Auto-Reload Register Low
 493                         
 494  000000                                 EXTERN   TIM3_CCR1H.w  ; TIM3 Capture/Compare Register 
                                                                ;1 High
 495                         
 496  000000                                 EXTERN   TIM3_CCR1L.w  ; TIM3 Capture/Compare Register 
                                                                ;1 Low
 497                         
 498  000000                                 EXTERN   TIM3_CCR2H.w  ; TIM3 Capture/Compare Register 
                                                                ;2 High
STMicroelectronics list file postprocessor v1.01   (C)2009-2023   Sat Aug 12 20:15:59 2023
Page 12  Assembler
                                               c:\program files (x86)\stmicroelectronics\st_toolset\stvd\watch\procedures.asm

 499                         
 500  000000                                 EXTERN   TIM3_CCR2L.w  ; TIM3 Capture/Compare Register 
                                                                ;2 Low
 501                         
 502  000000                                 EXTERN   TIM3_BKR.w    ; TIM3 Break register
 503                         
 504  000000                                 EXTERN   TIM3_OISR.w   ; TIM3 Output idle state 
                                                                ;register
 505                         
 506                         ; 8-Bit  Timer 4 (TIM4)
 507                         ;;;;;;;;;;;;;;;;;;;;;;;;;;;;;;;;;;;;;;;;;;;;;;;;;;;;;;;;;;;;;;
                               ;;;;;;
 508                         
 509  000000                                 EXTERN   TIM4_CR1.w    ; TIM4 Control Register 1
 510                         
 511  000000                                 EXTERN   TIM4_CR2.w    ; TIM4 Control Register 2
 512                         
 513  000000                                 EXTERN   TIM4_SMCR.w   ; TIM4 Slave Mode Control 
                                                                ;Register
 514                         
 515  000000                                 EXTERN   TIM4_DER.w    ; TIM4 DMA request Enable 
                                                                ;Register
 516                         
 517  000000                                 EXTERN   TIM4_IER.w    ; TIM4 Interrupt Enable 
                                                                ;Register
 518                         
 519  000000                                 EXTERN   TIM4_SR1.w    ; TIM4 Status Register 1
 520                         
 521  000000                                 EXTERN   TIM4_EGR.w    ; TIM4 Event Generation 
                                                                ;Register
 522                         
 523  000000                                 EXTERN   TIM4_CNTR.w   ; TIM4 Counter
 524                         
 525  000000                                 EXTERN   TIM4_PSCR.w   ; TIM4 Prescaler Register
 526                         
 527  000000                                 EXTERN   TIM4_ARR.w    ; TIM4 Auto-Reload Register
 528                         
 529                         ; Infra Red Interface (IR)
 530                         ;;;;;;;;;;;;;;;;;;;;;;;;;;;;;;;;;;;;;;;;;;;;;;;;;;;;;;;;;;;;;;
                               ;;;;;;
 531                         
 532  000000                                 EXTERN   IR_CR.w       ; Infra-red control register
 533                         
 534                         ; Analog to digital converter 1 (ADC1)
 535                         ;;;;;;;;;;;;;;;;;;;;;;;;;;;;;;;;;;;;;;;;;;;;;;;;;;;;;;;;;;;;;;
                               ;;;;;;
 536                         
 537  000000                                 EXTERN   ADC1_CR1.w    ; ADC1 Configuration register 1
 538                         
 539  000000                                 EXTERN   ADC1_CR2.w    ; ADC1 Configuration register 2
 540                         
 541  000000                                 EXTERN   ADC1_CR3.w    ; ADC1 Configuration register 3
 542                         
 543  000000                                 EXTERN   ADC1_SR.w     ; ADC1 status register
 544                         
 545  000000                                 EXTERN   ADC1_DRH.w    ; ADC Data Register High
 546                         
STMicroelectronics list file postprocessor v1.01   (C)2009-2023   Sat Aug 12 20:15:59 2023
Page 13  Assembler
                                               c:\program files (x86)\stmicroelectronics\st_toolset\stvd\watch\procedures.asm

 547  000000                                 EXTERN   ADC1_DRL.w    ; ADC Data Register Low
 548                         
 549  000000                                 EXTERN   ADC1_HTRH.w   ; ADC High Threshold Register 
                                                                ;High
 550                         
 551  000000                                 EXTERN   ADC1_HTRL.w   ; ADC High Threshold Register 
                                                                ;Low
 552                         
 553  000000                                 EXTERN   ADC1_LTRH.w   ; ADC Low Threshold Register 
                                                                ;High
 554                         
 555  000000                                 EXTERN   ADC1_LTRL.w   ; ADC Low Threshold Register 
                                                                ;Low
 556                         
 557  000000                                 EXTERN   ADC1_SQR1.w   ; ADC1 channel sequence 1 
                                                                ;register
 558                         
 559  000000                                 EXTERN   ADC1_SQR2.w   ; ADC1 channel sequence 2 
                                                                ;register
 560                         
 561  000000                                 EXTERN   ADC1_SQR3.w   ; ADC1 channel sequence 3 
                                                                ;register
 562                         
 563  000000                                 EXTERN   ADC1_SQR4.w   ; ADC1 channel sequence 4 
                                                                ;register
 564                         
 565  000000                                 EXTERN   ADC1_TRIGR1.w  ; ADC1 Trigger disable 1
 566                         
 567  000000                                 EXTERN   ADC1_TRIGR2.w  ; ADC1 Trigger disable 2
 568                         
 569  000000                                 EXTERN   ADC1_TRIGR3.w  ; ADC1 Trigger disable 3
 570                         
 571  000000                                 EXTERN   ADC1_TRIGR4.w  ; ADC1 Trigger disable 4
 572                         
 573                         ; Routing interface (RI)
 574                         ;;;;;;;;;;;;;;;;;;;;;;;;;;;;;;;;;;;;;;;;;;;;;;;;;;;;;;;;;;;;;;
                               ;;;;;;
 575                         
 576  000000                                 EXTERN   RI_ICR1.w     ; Timer input capture routing 
                                                                ;register 1
 577                         
 578  000000                                 EXTERN   RI_ICR2.w     ; Timer input capture routing 
                                                                ;register 2
 579                         
 580  000000                                 EXTERN   RI_IOIR1.w    ; I/O input register 1
 581                         
 582  000000                                 EXTERN   RI_IOIR2.w    ; I/O input register 2
 583                         
 584  000000                                 EXTERN   RI_IOIR3.w    ; I/O input register 3
 585                         
 586  000000                                 EXTERN   RI_IOCMR1.w   ; I/O control mode register 1
 587                         
 588  000000                                 EXTERN   RI_IOCMR2.w   ; I/O control mode register 2
 589                         
 590  000000                                 EXTERN   RI_IOCMR3.w   ; I/O control mode register 3
 591                         
 592  000000                                 EXTERN   RI_IOSR1.w    ; I/O switch register 1
STMicroelectronics list file postprocessor v1.01   (C)2009-2023   Sat Aug 12 20:15:59 2023
Page 14  Assembler
                                               c:\program files (x86)\stmicroelectronics\st_toolset\stvd\watch\procedures.asm

 593                         
 594  000000                                 EXTERN   RI_IOSR2.w    ; I/O switch register 2
 595                         
 596  000000                                 EXTERN   RI_IOSR3.w    ; I/O switch register 3
 597                         
 598  000000                                 EXTERN   RI_IOGCR.w    ; I/O group control register
 599                         
 600  000000                                 EXTERN   RI_ASCR1.w    ; Analog switch register 1
 601                         
 602  000000                                 EXTERN   RI_ASCR2.w    ; Analog switch register 2
 603                         
 604  000000                                 EXTERN   RI_RCR.w      ; Resistor control register
 605                         
 606  000000                                 EXTERN   RI_CR.w       ; I/O control register
 607                         
 608  000000                                 EXTERN   RI_MASKR1.w   ; I/O mask register 1
 609                         
 610  000000                                 EXTERN   RI_MASKR2.w   ; I/O mask register 2
 611                         
 612  000000                                 EXTERN   RI_MASKR3.w   ; I/O mask register 3
 613                         
 614  000000                                 EXTERN   RI_MASKR4.w   ; I/O mask register 4
 615                         
 616  000000                                 EXTERN   RI_IOIR4.w    ; I/O input register 4
 617                         
 618  000000                                 EXTERN   RI_IOCMR4.w   ; I/O control mode register 4
 619                         
 620  000000                                 EXTERN   RI_IOSR4.w    ; I/O switch register 4
 621                         
 622                         ; Global configuration register (CFG)
 623                         ;;;;;;;;;;;;;;;;;;;;;;;;;;;;;;;;;;;;;;;;;;;;;;;;;;;;;;;;;;;;;;
                               ;;;;;;
 624                         
 625  000000                                 EXTERN   CFG_GCR.w     ; CFG Global configuration 
                                                                ;register
 626                         
 627                         ; Interrupt Software Priority Registers (ITC)
 628                         ;;;;;;;;;;;;;;;;;;;;;;;;;;;;;;;;;;;;;;;;;;;;;;;;;;;;;;;;;;;;;;
                               ;;;;;;
 629                         
 630  000000                                 EXTERN   ITC_SPR1.w    ; Interrupt Software priority 
                                                                ;register 1
 631                         
 632  000000                                 EXTERN   ITC_SPR2.w    ; Interrupt Software priority 
                                                                ;register 2
 633                         
 634  000000                                 EXTERN   ITC_SPR3.w    ; Interrupt Software priority 
                                                                ;register 3
 635                         
 636  000000                                 EXTERN   ITC_SPR4.w    ; Interrupt Software priority 
                                                                ;register 4
 637                         
 638  000000                                 EXTERN   ITC_SPR5.w    ; Interrupt Software priority 
                                                                ;register 5
 639                         
 640  000000                                 EXTERN   ITC_SPR6.w    ; Interrupt Software priority 
                                                                ;register 6
STMicroelectronics list file postprocessor v1.01   (C)2009-2023   Sat Aug 12 20:15:59 2023
Page 15  Assembler
                                               c:\program files (x86)\stmicroelectronics\st_toolset\stvd\watch\procedures.asm

 641                         
 642  000000                                 EXTERN   ITC_SPR7.w    ; Interrupt Software priority 
                                                                ;register 7
 643                         
 644  000000                                 EXTERN   ITC_SPR8.w    ; Interrupt Software priority 
                                                                ;register 8
 645                         
 646  000000                                 #endif                 ; __STM8L051F3__
<END_OF_INCLUSION>
   3  000000                                 extern   mode
   4  000000                                 extern   seconds
   5  000000                                 extern   minutes
   6  000000                                 extern   hours
   7  000000                                 extern   date
   8  000000                                 extern   monthweekd
   9  000000                                 extern   year
  10  000000                                 extern   cls
  11  000000                                 extern   delay
  12  000000                                 extern   bcd_dec
  13  000000                                 extern   dec_bcd
  14  000000                                 extern   byte1
  15  000000                                 extern   byte2
  16  000000                                 extern   numofdays
  17  000000                                 extern   get_wd_string
  18  000000                                 extern   daystab
  19  000000                                 extern   melody
  20  000000                                 extern   beeperflag
  21  000000                                 extern   stop
  22  000000                                 extern   voltage
  23  000000                                 extern   set_threshold
  24  000000                                 extern   calibr
  25  000000                                 extern   hrly
  26                                   
  27                                   segment  'rom'
  28  000000                       CEN       equ      0
  29  000000                       UIF       equ      0
  30  000007                       INIT      equ      7
  31  000006                       INITF     equ      6
  32  000005                       RSF       equ      5
  33  000000                       ALRAE     equ      0
  34  000000                       ALRAWF    equ      0
  35                         
  36  000000                       CFG_GCR_SWD  equ      0
  37  000000                       PCKEN10   equ      0
  38  000001                       PCKEN11   equ      1
  39  000002                       PCKEN12   equ      2
  40  000004                       MELODY_NUM  equ      4
  41                         
  42  000000                       PVDE      equ      0
  43  000000                       VREFINTF  equ      0
  44  000005                       PVDIF     equ      5
  45  000006                       PVDOF     equ      6
  46                         
  47  000007                       CALP      equ      7
  48  000001                       RECALPF   equ      1
  49  000000                       CALM8     equ      0
  50                         
  51  000002                       WUTWF     equ      2
STMicroelectronics list file postprocessor v1.01   (C)2009-2023   Sat Aug 12 20:15:59 2023
Page 16  Assembler
                                               c:\program files (x86)\stmicroelectronics\st_toolset\stvd\watch\procedures.asm

  52  000002                       WUTE      equ      2
  53  000002                       WUTF      equ      2
  54  000000                       WUCKSEL0  equ      0
  55  000001                       WUCKSEL1  equ      1
  56  000002                       WUCKSEL2  equ      2
  57                         
  58                                   segment  'ram0'
  59  000024                       .key1flag  ds.b     
  60  000025                       .key2flag  ds.b     
  61  000026                       .key3flag  ds.b     
  62  000027                       .key4flag  ds.b     
  63  000028                       .timerflag  ds.b     
  64  000029                       scndslft  ds.w     
  65                         
  66                                   segment  'rom'
  67                         .delay:   
  68  008DAA   72115256                      bres     TIM2_SR1, #UIF  ;  
  69  008DAE   72110028                      bres     timerflag, #0  ;  
                                                                ;												
  70  008DB2   9E                            ld       a, xh
  71  008DB3   C7525F                        ld       TIM2_ARRH, a  ;    
                                                                ;
  72  008DB6   9F                            ld       a, xl
  73  008DB7   C75260                        ld       TIM2_ARRL, a
  74  008DBA   3500525C                      mov      TIM2_CNTRH, #$00  ;  
  75  008DBE   3500525D                      mov      TIM2_CNTRL, #$00
  76  008DC2   72105250                      bset     TIM2_CR1, #CEN  ; 
  77  008DC6   81                            ret      
  78                                   
  79                         .keyparse:  
  80  008DC7   A601                          ld       a, #1
  81  008DC9   C10024                        cp       a, key1flag   
  82  008DCC   2703                          jreq     key1parse
  83  008DCE   CC8E69                        jp       keyparse2
  84                                   
  85                         key1parse  
  86  008DD1   35000024                      mov      key1flag, #0
  87  008DD5   C60022                        ld       a, mode
  88  008DD8   A100                          cp       a, #0
  89  008DDA   273F                          jreq     key1_mode1    ;wait -> show_hhmm -> hhmm
  90  008DDC   A10A                          cp       a, #10
  91  008DDE   2746                          jreq     key1_mode2    ;hhmm -> show_ss
  92  008DE0   A102                          cp       a, #2
  93  008DE2   2737                          jreq     key1_mode1    ;show_ss -> show_hhmm -> hhmm
  94  008DE4   A115                          cp       a, #21
  95  008DE6   2743                          jreq     key1_mode21   ;setup ss -> accept_ss -> 
                                                                ;show_ss
  96                                   
  97  008DE8   A10B                          cp       a, #11
  98  008DEA   274D                          jreq     key1_mode11   ;setup_mm: inc_mm
  99  008DEC   A10D                          cp       a, #13
 100  008DEE   274D                          jreq     key1_mode13   ;setup_hh: inc_hh
 101  008DF0   A11F                          cp       a, #31
 102  008DF2   274D                          jreq     key1_mode31   ;setup_mt: inc_mt
 103  008DF4   A121                          cp       a, #33
 104  008DF6   274D                          jreq     key1_mode33   ;setup_dd: inc_dd
 105  008DF8   A129                          cp       a, #41
STMicroelectronics list file postprocessor v1.01   (C)2009-2023   Sat Aug 12 20:15:59 2023
Page 17  Assembler
                                               c:\program files (x86)\stmicroelectronics\st_toolset\stvd\watch\procedures.asm

 106  008DFA   274D                          jreq     key1_mode41   ;setup_wd: inc_wd
 107  008DFC   A133                          cp       a, #51
 108  008DFE   274D                          jreq     key1_mode51   ;setup_wd: inc_yyyy
 109                                   
 110  008E00   A13D                          cp       a, #61
 111  008E02   274D                          jreq     key1_mode61   ;setup_alrm_mm: inc_amm
 112  008E04   A13F                          cp       a, #63
 113  008E06   274D                          jreq     key1_mode63   ;setup_alrm_hh: inc_ahh
 114  008E08   A141                          cp       a, #65
 115  008E0A   274D                          jreq     key1_mode65   ;setup_melody: inc_melody
 116  008E0C   A142                          cp       a, #66
 117  008E0E   274D                          jreq     key1_mode66   ;arm_alrm: toggle_alrm_arm
 118  008E10   A151                          cp       a, #81
 119  008E12   274D                          jreq     key1_mode81   ;setup_clbr: inc_clbr
 120  008E14   A15B                          cp       a, #91
 121  008E16   274D                          jreq     key1_mode91   ;setup_hrly: toggle_hrly
 122  008E18   2001                          jra      key1_mode1
 123  008E1A   81                            ret      
 124                                   
 125                         key1_mode1  
 126  008E1B   35010022                      mov      mode, #1
 127  008E1F   AE3000                        ldw      x, #12288
 128  008E22   CD8DAA                        call     delay
 129  008E25   81                            ret      
 130                         key1_mode2  
 131  008E26   35020022                      mov      mode, #2
 132                                                          ;ldw x, #20480
 133                                                          ;call delay
 134  008E2A   81                            ret      
 135                         key1_mode21  
 136  008E2B   CD912D                        call     reset_ss
 137  008E2E   35020022                      mov      mode, #2
 138  008E32   AE5000                        ldw      x, #20480
 139  008E35   CD8DAA                        call     delay
 140  008E38   81                            ret      
 141                         key1_mode11  
 142  008E39   CD9167                        call     inc_mm
 143  008E3C   81                            ret      
 144                         key1_mode13  
 145  008E3D   CD91D7                        call     inc_hh
 146  008E40   81                            ret      
 147                         key1_mode31  
 148  008E41   CD924A                        call     inc_mt
 149  008E44   81                            ret      
 150                         key1_mode33  
 151  008E45   CD92D3                        call     inc_dd
 152  008E48   81                            ret      
 153                         key1_mode41  
 154  008E49   CD9353                        call     inc_wd
 155  008E4C   81                            ret      
 156                         key1_mode51  
 157  008E4D   CD93D5                        call     inc_yyyy
 158  008E50   81                            ret      
 159                         key1_mode61:  
 160  008E51   CD943B                        call     inc_amm
 161  008E54   81                            ret      
 162                         key1_mode63  
STMicroelectronics list file postprocessor v1.01   (C)2009-2023   Sat Aug 12 20:15:59 2023
Page 18  Assembler
                                               c:\program files (x86)\stmicroelectronics\st_toolset\stvd\watch\procedures.asm

 163  008E55   CD94B7                        call     inc_ahh
 164  008E58   81                            ret      
 165                         key1_mode65  
 166  008E59   CD9533                        call     inc_melody
 167  008E5C   81                            ret      
 168                         key1_mode66  
 169  008E5D   CD9565                        call     toggle_alrm_arm
 170  008E60   81                            ret      
 171                         key1_mode81  
 172  008E61   CD9572                        call     inc_clbr
 173  008E64   81                            ret      
 174                         key1_mode91  
 175  008E65   CD9618                        call     toggle_hrly
 176  008E68   81                            ret      
 177                         
 178                         keyparse2:  
 179  008E69   C10025                        cp       a, key2flag
 180  008E6C   2703                          jreq     key2parse
 181  008E6E   CC8F0C                        jp       keyparse3
 182                                   
 183                         key2parse  
 184  008E71   35000025                      mov      key2flag, #0
 185  008E75   C60022                        ld       a, mode
 186  008E78   A100                          cp       a, #0
 187  008E7A   273F                          jreq     key2_mode3    ;wait -> show_ddmm -> ddmm
 188  008E7C   A11E                          cp       a, #30
 189  008E7E   2746                          jreq     key2_mode4    ;ddmm -> show_wd -> wd
 190  008E80   A128                          cp       a, #40
 191  008E82   274D                          jreq     key2_mode5    ;wd -> show_yyyy -> yyyy
 192  008E84   A132                          cp       a, #50
 193  008E86   2733                          jreq     key2_mode3    ;yyyy -> show_ddmm -> ddmm
 194                                   
 195  008E88   A10B                          cp       a, #11
 196  008E8A   2750                          jreq     key2_mode11   ;setup_mm: dec_mm
 197  008E8C   A10D                          cp       a, #13
 198  008E8E   2750                          jreq     key2_mode13   ;setup_hh: dec_hh
 199  008E90   A11F                          cp       a, #31
 200  008E92   2750                          jreq     key2_mode31   ;setup_mt: dec_mt
 201  008E94   A121                          cp       a, #33
 202  008E96   2750                          jreq     key2_mode33   ;setup_dd: dec_dd
 203  008E98   A129                          cp       a, #41
 204  008E9A   2750                          jreq     key2_mode41   ;setup_wd: dec_wd
 205  008E9C   A133                          cp       a, #51
 206  008E9E   2750                          jreq     key2_mode51   ;setup_yyyy: dec_yyyy
 207                                   
 208  008EA0   A13D                          cp       a, #61
 209  008EA2   2750                          jreq     key2_mode61   ;setup_alrm_mm: dec_amm
 210  008EA4   A13F                          cp       a, #63
 211  008EA6   2750                          jreq     key2_mode63   ;setup_alrm_hh: dec_ahh
 212  008EA8   A141                          cp       a, #65
 213  008EAA   2750                          jreq     key2_mode65   ;setup_melody: dec_melody
 214  008EAC   A142                          cp       a, #66
 215  008EAE   2750                          jreq     key2_mode66   ;arm_alrm: toggle_alrm_arm
 216  008EB0   A151                          cp       a, #81
 217  008EB2   2750                          jreq     key2_mode81   ;setup_clbr: dec_clbr
 218  008EB4   A15B                          cp       a, #91
 219  008EB6   2750                          jreq     key2_mode91   ;setup_hrly: toggle_hrly
STMicroelectronics list file postprocessor v1.01   (C)2009-2023   Sat Aug 12 20:15:59 2023
Page 19  Assembler
                                               c:\program files (x86)\stmicroelectronics\st_toolset\stvd\watch\procedures.asm

 220  008EB8   2001                          jra      key2_mode3
 221  008EBA   81                            ret      
 222                                   
 223                         key2_mode3  
 224  008EBB   35030022                      mov      mode, #3
 225  008EBF   AE3000                        ldw      x, #12288
 226  008EC2   CD8DAA                        call     delay
 227  008EC5   81                            ret      
 228                         key2_mode4  
 229  008EC6   35040022                      mov      mode, #4
 230  008ECA   AE3000                        ldw      x, #12288
 231  008ECD   CD8DAA                        call     delay
 232  008ED0   81                            ret      
 233                         key2_mode5  
 234  008ED1   35050022                      mov      mode, #5
 235  008ED5   AE3000                        ldw      x, #12288
 236  008ED8   CD8DAA                        call     delay
 237  008EDB   81                            ret      
 238                         key2_mode11  
 239  008EDC   CD919B                        call     dec_mm
 240  008EDF   81                            ret      
 241                         key2_mode13  
 242  008EE0   CD920E                        call     dec_hh
 243  008EE3   81                            ret      
 244                         key2_mode31  
 245  008EE4   CD928A                        call     dec_mt
 246  008EE7   81                            ret      
 247                         key2_mode33  
 248  008EE8   CD9312                        call     dec_dd
 249  008EEB   81                            ret      
 250                         key2_mode41  
 251  008EEC   CD9394                        call     dec_wd
 252  008EEF   81                            ret      
 253                         key2_mode51  
 254  008EF0   CD9404                        call     dec_yyyy
 255  008EF3   81                            ret      
 256                         key2_mode61  
 257  008EF4   CD9474                        call     dec_amm
 258  008EF7   81                            ret      
 259                         key2_mode63  
 260  008EF8   CD94F0                        call     dec_ahh
 261  008EFB   81                            ret      
 262                         key2_mode65  
 263  008EFC   CD954C                        call     dec_melody
 264  008EFF   81                            ret      
 265                         key2_mode66  
 266  008F00   CD9565                        call     toggle_alrm_arm
 267  008F03   81                            ret      
 268                         key2_mode81  
 269  008F04   CD95DC                        call     dec_clbr
 270  008F07   81                            ret      
 271                         key2_mode91  
 272  008F08   CD9618                        call     toggle_hrly
 273  008F0B   81                            ret      
 274                         
 275                         keyparse3:  
 276  008F0C   C10026                        cp       a, key3flag
STMicroelectronics list file postprocessor v1.01   (C)2009-2023   Sat Aug 12 20:15:59 2023
Page 20  Assembler
                                               c:\program files (x86)\stmicroelectronics\st_toolset\stvd\watch\procedures.asm

 277  008F0F   2703                          jreq     key3parse
 278  008F11   CC8F56                        jp       keyparse4
 279                         
 280                         key3parse:  
 281  008F14   35000026                      mov      key3flag, #0
 282  008F18   C60022                        ld       a, mode
 283                                   
 284  008F1B   A100                          cp       a, #0
 285  008F1D   270F                          jreq     key3_mode7    ;sleep -> show_batterty_v
 286  008F1F   A107                          cp       a, #7
 287  008F21   271D                          jreq     key3_mode8    ;show_batterty_v -> 
                                                                ;show_clbr_val
 288  008F23   A150                          cp       a, #80
 289  008F25   2724                          jreq     key3_mode9    ;show_clbr_val -> show_hrly
 290  008F27   A15A                          cp       a, #90
 291  008F29   2703                          jreq     key3_mode7    ;show_hrly -> show_batterty_v
 292  008F2B   2001                          jra      key3_mode7
 293  008F2D   81                            ret      
 294                                   
 295                         key3_mode7  
 296  008F2E   35060000                      mov      voltage, #6
 297  008F32   CD80A6                        call     set_threshold
 298  008F35   AE3000                        ldw      x, #12288
 299  008F38   CD8DAA                        call     delay
 300  008F3B   35070022                      mov      mode, #7
 301  008F3F   81                            ret      
 302                         key3_mode8  
 303  008F40   AE3000                        ldw      x, #12288
 304  008F43   CD8DAA                        call     delay
 305  008F46   35080022                      mov      mode, #8
 306  008F4A   81                            ret      
 307                         key3_mode9  
 308  008F4B   AE3000                        ldw      x, #12288
 309  008F4E   CD8DAA                        call     delay
 310  008F51   35090022                      mov      mode, #9
 311  008F55   81                            ret      
 312                                   
 313                         keyparse4:  
 314  008F56   C10027                        cp       a, key4flag
 315  008F59   2701                          jreq     key4parse
 316  008F5B   81                            ret      
 317                                   
 318                         key4parse:  
 319  008F5C   35000027                      mov      key4flag, #0
 320                                   
 321  008F60   720400043B                    btjt     beeperflag, #2, key4_beep_off
 322                                   
 323  008F65   AE0400                        ldw      x, #1024
 324  008F68   CD8DAA                        call     delay
 325  008F6B   C60022                        ld       a, mode
 326                                   
 327  008F6E   A102                          cp       a, #2
 328  008F70   2737                          jreq     key4_mode21   ;show_ss -> setup_ss
 329  008F72   A115                          cp       a, #21
 330  008F74   2738                          jreq     key4_mode22   ;setup_ss -> show_ss
 331                                   
 332  008F76   A10A                          cp       a, #10
STMicroelectronics list file postprocessor v1.01   (C)2009-2023   Sat Aug 12 20:15:59 2023
Page 21  Assembler
                                               c:\program files (x86)\stmicroelectronics\st_toolset\stvd\watch\procedures.asm

 333  008F78   273F                          jreq     key4_mode11   ;hhmm -> setup_mm
 334  008F7A   A10B                          cp       a, #11
 335  008F7C   2740                          jreq     key4_mode12   ;setup_mm -> accept_mm -> 
                                                                ;setup_hh
 336  008F7E   A10D                          cp       a, #13
 337  008F80   2741                          jreq     key4_mode14   ;setup_hh -> accept_hh -> 
                                                                ;show_hhmm
 338                                   
 339  008F82   A11E                          cp       a, #30
 340  008F84   2748                          jreq     key4_mode31   ;ddmm -> setup_mt
 341  008F86   A11F                          cp       a, #31
 342  008F88   2749                          jreq     key4_mode32   ;setup_mt -> accept_mt -> 
                                                                ;setup_dd
 343  008F8A   A121                          cp       a, #33
 344  008F8C   274A                          jreq     key4_mode34   ;setup_dd -> accept_dd -> 
                                                                ;show_ddmm
 345                                   
 346  008F8E   A128                          cp       a, #40
 347  008F90   2751                          jreq     key4_mode41   ;wd -> setup_wd
 348  008F92   A129                          cp       a, #41
 349  008F94   2752                          jreq     key4_mode42   ;setup_wd -> accept_wd -> 
                                                                ;show_wd
 350                                   
 351  008F96   A132                          cp       a, #50
 352  008F98   2759                          jreq     key4_mode51   ;yyyy -> setup_yyyy
 353  008F9A   A133                          cp       a, #51
 354  008F9C   275A                          jreq     key4_mode52   ;setup_yyyy -> accept_yyyy -> 
                                                                ;show_yyyy
 355                                   
 356  008F9E   2063                          jra      key4parse2
 357                         
 358                         key4_beep_off  
 359  008FA0   72120004                      bset     beeperflag, #1
 360  008FA4   72150004                      bres     beeperflag, #2
 361  008FA8   81                            ret      
 362                         key4_mode21  
 363  008FA9   35150022                      mov      mode, #21
 364  008FAD   81                            ret      
 365                         key4_mode22  
 366  008FAE   AE3000                        ldw      x, #12288
 367  008FB1   CD8DAA                        call     delay
 368  008FB4   35020022                      mov      mode, #2
 369  008FB8   81                            ret      
 370                         key4_mode11  
 371  008FB9   350B0022                      mov      mode, #11
 372  008FBD   81                            ret      
 373                         key4_mode12  
 374  008FBE   350C0022                      mov      mode, #12
 375  008FC2   81                            ret      
 376                         key4_mode14  
 377  008FC3   350E0022                      mov      mode, #14
 378  008FC7   AE3000                        ldw      x, #12288
 379  008FCA   CD8DAA                        call     delay
 380  008FCD   81                            ret      
 381                         key4_mode31  
 382  008FCE   351F0022                      mov      mode, #31
 383  008FD2   81                            ret      
STMicroelectronics list file postprocessor v1.01   (C)2009-2023   Sat Aug 12 20:15:59 2023
Page 22  Assembler
                                               c:\program files (x86)\stmicroelectronics\st_toolset\stvd\watch\procedures.asm

 384                         key4_mode32  
 385  008FD3   35200022                      mov      mode, #32
 386  008FD7   81                            ret      
 387                         key4_mode34  
 388  008FD8   35220022                      mov      mode, #34
 389  008FDC   AE3000                        ldw      x, #12288
 390  008FDF   CD8DAA                        call     delay
 391  008FE2   81                            ret      
 392                         key4_mode41  
 393  008FE3   35290022                      mov      mode, #41
 394  008FE7   81                            ret      
 395                         key4_mode42  
 396  008FE8   352A0022                      mov      mode, #42
 397  008FEC   AE3000                        ldw      x, #12288
 398  008FEF   CD8DAA                        call     delay
 399  008FF2   81                            ret      
 400                         key4_mode51  
 401  008FF3   35330022                      mov      mode, #51
 402  008FF7   81                            ret      
 403                         key4_mode52  
 404  008FF8   35340022                      mov      mode, #52
 405  008FFC   AE3000                        ldw      x, #12288
 406  008FFF   CD8DAA                        call     delay
 407  009002   81                            ret      
 408                         
 409                         key4parse2:  
 410  009003   A100                          cp       a, #0
 411  009005   2729                          jreq     key4_mode6    ;halt -> alrm_hhmm
 412  009007   A13C                          cp       a, #60
 413  009009   2730                          jreq     key4_mode61   ;alrm_hhmm -> setup_alrm_mm
 414  00900B   A13D                          cp       a, #61
 415  00900D   2731                          jreq     key4_mode62   ;setup_alrm_mm -> accept_alrm_mm
                                                                ; -> setup_alrm_hh
 416  00900F   A13F                          cp       a, #63
 417  009011   2732                          jreq     key4_mode64   ;setup_alrm_hh -> accept_alrm_hh
                                                                ; -> setup_melody
 418  009013   A141                          cp       a, #65
 419  009015   2737                          jreq     key4_mode66   ;setup_melody -> arm_alrm
 420  009017   A142                          cp       a, #66
 421  009019   2715                          jreq     key4_mode6    ;arm_alrm -> alrm_hhmm -> halt
 422                                   
 423  00901B   A150                          cp       a, #80
 424  00901D   2738                          jreq     key4_mode81   ;calibration -> setup_clbr
 425  00901F   A151                          cp       a, #81
 426  009021   2739                          jreq     key4_mode82   ;setup_clbr -> accept_clbr -> 
                                                                ;calibration
 427  009023   A15A                          cp       a, #90
 428  009025   2740                          jreq     key4_mode91   ;hrly -> setup_hrly
 429  009027   A15B                          cp       a, #91
 430  009029   2741                          jreq     key4_mode92   ;setup_hrly -> accept_hrly -> 
                                                                ;hrly
 431  00902B   A15C                          cp       a, #92
 432  00902D   2001                          jra      key4_mode6
 433  00902F   81                            ret      
 434                         
 435                         key4_mode6  
 436  009030   35060022                      mov      mode, #6
STMicroelectronics list file postprocessor v1.01   (C)2009-2023   Sat Aug 12 20:15:59 2023
Page 23  Assembler
                                               c:\program files (x86)\stmicroelectronics\st_toolset\stvd\watch\procedures.asm

 437  009034   AE3000                        ldw      x, #12288
 438  009037   CD8DAA                        call     delay
 439  00903A   81                            ret      
 440                         key4_mode61  
 441  00903B   353D0022                      mov      mode, #61
 442  00903F   81                            ret      
 443                         key4_mode62  
 444  009040   353E0022                      mov      mode, #62
 445  009044   81                            ret      
 446                         key4_mode64  
 447  009045   72160004                      bset     beeperflag, #3
 448  009049   35400022                      mov      mode, #64
 449  00904D   81                            ret      
 450                         key4_mode66  
 451  00904E   72170004                      bres     beeperflag, #3
 452  009052   35420022                      mov      mode, #66
 453  009056   81                            ret      
 454                         key4_mode81  
 455  009057   35510022                      mov      mode, #81
 456  00905B   81                            ret      
 457                         key4_mode82  
 458  00905C   35520022                      mov      mode, #82
 459  009060   AE3000                        ldw      x, #12288
 460  009063   CD8DAA                        call     delay
 461  009066   81                            ret      
 462                         key4_mode91  
 463  009067   355B0022                      mov      mode, #91
 464  00906B   81                            ret      
 465                         key4_mode92  
 466  00906C   355C0022                      mov      mode, #92
 467  009070   81                            ret      
 468                                   
 469                         .timerparse  
 470  009071   C60028                        ld       a, timerflag
 471  009074   7200002801                    btjt     timerflag, #0, timer_fired
 472  009079   81                            ret      
 473                                   
 474                         timer_fired  
 475  00907A   72110028                      bres     timerflag, #0  ;  
 476                                   
 477  00907E   C60022                        ld       a, mode
 478  009081   A107                          cp       a, #7
 479  009083   2751                          jreq     t_mode_halt
 480  009085   A10A                          cp       a, #10
 481  009087   274D                          jreq     t_mode_halt
 482                         ;	cp a, #2
 483                         ;	jreq t_mode_halt
 484  009089   A11E                          cp       a, #30
 485  00908B   2749                          jreq     t_mode_halt
 486  00908D   A128                          cp       a, #40
 487  00908F   2745                          jreq     t_mode_halt
 488  009091   A132                          cp       a, #50
 489  009093   2741                          jreq     t_mode_halt
 490  009095   A13C                          cp       a, #60
 491  009097   273D                          jreq     t_mode_halt
 492  009099   A146                          cp       a, #70
 493  00909B   2739                          jreq     t_mode_halt
STMicroelectronics list file postprocessor v1.01   (C)2009-2023   Sat Aug 12 20:15:59 2023
Page 24  Assembler
                                               c:\program files (x86)\stmicroelectronics\st_toolset\stvd\watch\procedures.asm

 494  00909D   A150                          cp       a, #80
 495  00909F   2735                          jreq     t_mode_halt
 496  0090A1   A15A                          cp       a, #90
 497  0090A3   2731                          jreq     t_mode_halt
 498                                   
 499  0090A5   A115                          cp       a, #21
 500  0090A7   276A                          jreq     t_mode_flash
 501  0090A9   A10B                          cp       a, #11
 502  0090AB   2766                          jreq     t_mode_flash
 503  0090AD   A10D                          cp       a, #13
 504  0090AF   2762                          jreq     t_mode_flash
 505  0090B1   A11F                          cp       a, #31
 506  0090B3   275E                          jreq     t_mode_flash
 507  0090B5   A121                          cp       a, #33
 508  0090B7   275A                          jreq     t_mode_flash
 509  0090B9   A129                          cp       a, #41
 510  0090BB   2756                          jreq     t_mode_flash
 511  0090BD   A133                          cp       a, #51
 512  0090BF   2752                          jreq     t_mode_flash
 513  0090C1   A13D                          cp       a, #61
 514  0090C3   274E                          jreq     t_mode_flash
 515  0090C5   A13F                          cp       a, #63
 516  0090C7   274A                          jreq     t_mode_flash
 517  0090C9   A151                          cp       a, #81
 518  0090CB   2746                          jreq     t_mode_flash
 519  0090CD   A15B                          cp       a, #91
 520  0090CF   2742                          jreq     t_mode_flash
 521                                   
 522  0090D1   A164                          cp       a, #100
 523  0090D3   2749                          jreq     t_mode_beep
 524  0090D5   81                            ret      
 525                                   
 526                         .t_mode_halt:                    ;
 527  0090D6   CD8962                        call     cls
 528  0090D9   CD96AE                        call     check_hrly
 529  0090DC   35000022                      mov      mode, #0
 530  0090E0   721150C3                      bres     CLK_PCKENR1, #PCKEN10  ;  TIM2
 531  0090E4   721350C3                      bres     CLK_PCKENR1, #PCKEN11  ;  TIM3
 532  0090E8   721550C3                      bres     CLK_PCKENR1, #PCKEN12  ;  TIM4
 533  0090EC   72107F60                      bset     CFG_GCR, #CFG_GCR_SWD
 534  0090F0   8E                            halt     
 535                         .restore_periph  
 536  0090F1   72117F60                      bres     CFG_GCR, #CFG_GCR_SWD
 537  0090F5   721450C3                      bset     CLK_PCKENR1, #PCKEN12  ;  TIM4
 538  0090F9   721152E5                      bres     TIM4_SR1, #UIF  ;  
 539  0090FD   721250C3                      bset     CLK_PCKENR1, #PCKEN11  ;  TIM3
 540  009101   72115286                      bres     TIM3_SR1, #UIF  ;  
 541  009105   721050C3                      bset     CLK_PCKENR1, #PCKEN10  ;  TIM2
 542  009109   72115256                      bres     TIM2_SR1, #UIF  ;  
 543                                   
 544                                                          ;bres RTC_CR2, 
                                                                ;#WUTE												;
                                                                ;  
 545                                                          ;bres RTC_ISR2, 
                                                                ;#WUTF											; 
                                                                ; 
 546                                   
STMicroelectronics list file postprocessor v1.01   (C)2009-2023   Sat Aug 12 20:15:59 2023
Page 25  Assembler
                                               c:\program files (x86)\stmicroelectronics\st_toolset\stvd\watch\procedures.asm

 547                         wait_vref  
 548  00910D   720150B3FB                    btjf     PWR_CSR2, #VREFINTF, wait_vref  ; - . . .
 549  009112   81                            ret      
 550                                   
 551                         t_mode_flash:                    ;
 552  009113   901E0028                      bcpl     timerflag, #7  ;  
 553  009117   AE0400                        ldw      x, #1024
 554  00911A   CD8DAA                        call     delay
 555  00911D   81                            ret      
 556                                   
 557                         t_mode_beep:  
 558  00911E   72120004                      bset     beeperflag, #1  ; - 
 559  009122   35010022                      mov      mode, #1
 560  009126   AE3000                        ldw      x, #12288
 561  009129   CD8DAA                        call     delay
 562  00912C   81                            ret      
 563                         
 564                         .reset_ss:  
 565  00912D   55001C000C                    mov      byte1, seconds
 566  009132   CD8752                        call     bcd_dec
 567  009135   C6000D                        ld       a, byte2
 568  009138   A11E                          cp       a, #30
 569  00913A   2520                          jrult    skip_addup    ;   30  
                                                                ;. .
 570  00913C   55001D000C                    mov      byte1, minutes
 571  009141   CD8752                        call     bcd_dec
 572  009144   725C000D                      inc      byte2
 573  009148   55000D000C                    mov      byte1, byte2
 574  00914D   CD876C                        call     dec_bcd
 575  009150   C6000D                        ld       a, byte2
 576  009153   C7001D                        ld       minutes, a
 577  009156   AE5141                        ldw      x, #RTC_TR2
 578  009159   CD963C                        call     write_RTC_calendar
 579                         skip_addup  
 580  00915C   4F                            clr      a             ;  0
 581  00915D   C7001C                        ld       seconds, a
 582  009160   AE5140                        ldw      x, #RTC_TR1
 583  009163   CD963C                        call     write_RTC_calendar
 584  009166   81                            ret      
 585                                   
 586                         .inc_mm:  
 587  009167   55001D000C                    mov      byte1, minutes
 588  00916C   CD8752                        call     bcd_dec
 589  00916F   A63B                          ld       a, #59
 590  009171   C1000D                        cp       a, byte2
 591  009174   2719                          jreq     bottom_mm
 592  009176   725C000D                      inc      byte2
 593  00917A   55000D000C                    mov      byte1, byte2
 594  00917F   CD876C                        call     dec_bcd
 595  009182   C6000D                        ld       a, byte2
 596  009185   C7001D                        ld       minutes, a
 597  009188   AE5141                        ldw      x, #RTC_TR2
 598  00918B   CD963C                        call     write_RTC_calendar
 599  00918E   81                            ret      
 600                         bottom_mm  
 601  00918F   A600                          ld       a, #0
 602  009191   C7001D                        ld       minutes, a
STMicroelectronics list file postprocessor v1.01   (C)2009-2023   Sat Aug 12 20:15:59 2023
Page 26  Assembler
                                               c:\program files (x86)\stmicroelectronics\st_toolset\stvd\watch\procedures.asm

 603  009194   AE5141                        ldw      x, #RTC_TR2
 604  009197   CD963C                        call     write_RTC_calendar
 605  00919A   81                            ret      
 606                         
 607                         .dec_mm:  
 608  00919B   55001D000C                    mov      byte1, minutes
 609  0091A0   CD8752                        call     bcd_dec
 610  0091A3   C6000D                        ld       a, byte2
 611  0091A6   A100                          cp       a, #0
 612  0091A8   2719                          jreq     top_mm
 613  0091AA   725A000D                      dec      byte2
 614  0091AE   55000D000C                    mov      byte1, byte2
 615  0091B3   CD876C                        call     dec_bcd
 616  0091B6   C6000D                        ld       a, byte2
 617  0091B9   C7001D                        ld       minutes, a
 618  0091BC   AE5141                        ldw      x, #RTC_TR2
 619  0091BF   CD963C                        call     write_RTC_calendar
 620  0091C2   81                            ret      
 621                         top_mm    
 622  0091C3   353B000C                      mov      byte1, #59
 623  0091C7   CD876C                        call     dec_bcd
 624  0091CA   C6000D                        ld       a, byte2
 625  0091CD   C7001D                        ld       minutes, a
 626  0091D0   AE5141                        ldw      x, #RTC_TR2
 627  0091D3   CD963C                        call     write_RTC_calendar
 628  0091D6   81                            ret      
 629                         
 630                         .inc_hh:  
 631  0091D7   55001E000C                    mov      byte1, hours
 632  0091DC   CD8752                        call     bcd_dec
 633  0091DF   A617                          ld       a, #23
 634  0091E1   C1000D                        cp       a, byte2
 635  0091E4   2719                          jreq     bottom_hh
 636  0091E6   725C000D                      inc      byte2
 637  0091EA   55000D000C                    mov      byte1, byte2
 638  0091EF   CD876C                        call     dec_bcd
 639  0091F2   C6000D                        ld       a, byte2
 640  0091F5   C7001E                        ld       hours, a
 641  0091F8   AE5142                        ldw      x, #RTC_TR3
 642  0091FB   CD963C                        call     write_RTC_calendar
 643  0091FE   81                            ret      
 644                         bottom_hh  
 645  0091FF   C6001E                        ld       a, hours
 646  009202   A4C0                          and      a, #%11000000
 647  009204   C7001E                        ld       hours, a
 648  009207   AE5142                        ldw      x, #RTC_TR3
 649  00920A   CD963C                        call     write_RTC_calendar
 650  00920D   81                            ret      
 651                         
 652                         .dec_hh:  
 653  00920E   55001E000C                    mov      byte1, hours
 654  009213   CD8752                        call     bcd_dec
 655  009216   A600                          ld       a, #0
 656  009218   C1000D                        cp       a, byte2
 657  00921B   2719                          jreq     top_hh
 658  00921D   725A000D                      dec      byte2
 659  009221   55000D000C                    mov      byte1, byte2
STMicroelectronics list file postprocessor v1.01   (C)2009-2023   Sat Aug 12 20:15:59 2023
Page 27  Assembler
                                               c:\program files (x86)\stmicroelectronics\st_toolset\stvd\watch\procedures.asm

 660  009226   CD876C                        call     dec_bcd
 661  009229   C6000D                        ld       a, byte2
 662  00922C   C7001E                        ld       hours, a
 663  00922F   AE5142                        ldw      x, #RTC_TR3
 664  009232   CD963C                        call     write_RTC_calendar
 665  009235   81                            ret      
 666                         top_hh    
 667  009236   3517000C                      mov      byte1, #23
 668  00923A   CD876C                        call     dec_bcd
 669  00923D   C6000D                        ld       a, byte2
 670  009240   C7001E                        ld       hours, a
 671  009243   AE5142                        ldw      x, #RTC_TR3
 672  009246   CD963C                        call     write_RTC_calendar
 673  009249   81                            ret      
 674                         
 675                         .inc_mt:  
 676  00924A   C60020                        ld       a, monthweekd
 677  00924D   A41F                          and      a, #%00011111
 678  00924F   C7000C                        ld       byte1, a
 679  009252   CD8752                        call     bcd_dec
 680  009255   A60C                          ld       a, #12
 681  009257   C1000D                        cp       a, byte2
 682  00925A   271E                          jreq     bottom_mt
 683  00925C   725C000D                      inc      byte2
 684  009260   55000D000C                    mov      byte1, byte2
 685  009265   CD876C                        call     dec_bcd
 686  009268   C60020                        ld       a, monthweekd
 687  00926B   A4E0                          and      a, #%11100000
 688  00926D   CB000D                        add      a, byte2
 689  009270   C70020                        ld       monthweekd, a
 690  009273   AE5145                        ldw      x, #RTC_DR2
 691  009276   CD963C                        call     write_RTC_calendar
 692  009279   81                            ret      
 693                         bottom_mt  
 694  00927A   C60020                        ld       a, monthweekd
 695  00927D   A4E0                          and      a, #%11100000
 696  00927F   4C                            inc      a
 697  009280   C70020                        ld       monthweekd, a
 698  009283   AE5145                        ldw      x, #RTC_DR2
 699  009286   CD963C                        call     write_RTC_calendar
 700  009289   81                            ret      
 701                         
 702                         .dec_mt:  
 703  00928A   C60020                        ld       a, monthweekd
 704  00928D   A41F                          and      a, #%00011111
 705  00928F   C7000C                        ld       byte1, a
 706  009292   CD8752                        call     bcd_dec
 707  009295   A600                          ld       a, #0
 708  009297   C1000D                        cp       a, byte2
 709  00929A   271E                          jreq     top_mt
 710  00929C   725A000D                      dec      byte2
 711  0092A0   55000D000C                    mov      byte1, byte2
 712  0092A5   CD876C                        call     dec_bcd
 713  0092A8   C60020                        ld       a, monthweekd
 714  0092AB   A4E0                          and      a, #%11100000
 715  0092AD   CB000D                        add      a, byte2
 716  0092B0   C70020                        ld       monthweekd, a
STMicroelectronics list file postprocessor v1.01   (C)2009-2023   Sat Aug 12 20:15:59 2023
Page 28  Assembler
                                               c:\program files (x86)\stmicroelectronics\st_toolset\stvd\watch\procedures.asm

 717  0092B3   AE5145                        ldw      x, #RTC_DR2
 718  0092B6   CD963C                        call     write_RTC_calendar
 719  0092B9   81                            ret      
 720                         top_mt    
 721  0092BA   350C000C                      mov      byte1, #12
 722  0092BE   CD876C                        call     dec_bcd
 723  0092C1   C60020                        ld       a, monthweekd
 724  0092C4   A4E0                          and      a, #%11100000
 725  0092C6   CB000D                        add      a, byte2
 726  0092C9   C70020                        ld       monthweekd, a
 727  0092CC   AE5145                        ldw      x, #RTC_DR2
 728  0092CF   CD963C                        call     write_RTC_calendar
 729  0092D2   81                            ret      
 730                                   
 731                         .inc_dd:  
 732  0092D3   C60020                        ld       a, monthweekd  ;    
                                                                ;
 733  0092D6   CD87AE                        call     numofdays
 734  0092D9   88                            push     a
 735  0092DA   55001F000C                    mov      byte1, date   ;   
 736  0092DF   CD8752                        call     bcd_dec
 737  0092E2   84                            pop      a
 738  0092E3   C1000D                        cp       a, byte2
 739  0092E6   271E                          jreq     bottom_dd
 740  0092E8   725C000D                      inc      byte2         ;   ,  
                                                                ;
 741  0092EC   55000D000C                    mov      byte1, byte2
 742  0092F1   CD876C                        call     dec_bcd
 743  0092F4   C6000D                        ld       a, byte2
 744  0092F7   C7001F                        ld       date, a
 745  0092FA   AE5144                        ldw      x, #RTC_DR1
 746  0092FD   CD963C                        call     write_RTC_calendar
 747  009300   55000D001F                    mov      date, byte2
 748  009305   81                            ret      
 749                         bottom_dd  
 750  009306   A601                          ld       a, #1
 751  009308   C7001F                        ld       date, a
 752  00930B   AE5144                        ldw      x, #RTC_DR1
 753  00930E   CD963C                        call     write_RTC_calendar
 754  009311   81                            ret      
 755                                   
 756                         .dec_dd:  
 757  009312   55001F000C                    mov      byte1, date
 758  009317   CD8752                        call     bcd_dec
 759  00931A   A601                          ld       a, #1
 760  00931C   C1000D                        cp       a, byte2
 761  00931F   2719                          jreq     top_dd
 762  009321   725A000D                      dec      byte2
 763  009325   55000D000C                    mov      byte1, byte2
 764  00932A   CD876C                        call     dec_bcd
 765  00932D   C6000D                        ld       a, byte2
 766  009330   C7001F                        ld       date, a
 767  009333   AE5144                        ldw      x, #RTC_DR1
 768  009336   CD963C                        call     write_RTC_calendar
 769  009339   81                            ret      
 770                         top_dd    
 771  00933A   C60020                        ld       a, monthweekd
STMicroelectronics list file postprocessor v1.01   (C)2009-2023   Sat Aug 12 20:15:59 2023
Page 29  Assembler
                                               c:\program files (x86)\stmicroelectronics\st_toolset\stvd\watch\procedures.asm

 772  00933D   CD87AE                        call     numofdays
 773  009340   C7000C                        ld       byte1, a
 774  009343   CD876C                        call     dec_bcd
 775  009346   C6000D                        ld       a, byte2
 776  009349   C7001F                        ld       date, a
 777  00934C   AE5144                        ldw      x, #RTC_DR1
 778  00934F   CD963C                        call     write_RTC_calendar
 779  009352   81                            ret      
 780                                   
 781                         .inc_wd:  
 782  009353   C60020                        ld       a, monthweekd
 783  009356   A4E0                          and      a, #%11100000
 784  009358   4E                            swap     a
 785  009359   44                            srl      a
 786  00935A   A107                          cp       a, #7
 787  00935C   271F                          jreq     bottom_wd
 788  00935E   4C                            inc      a
 789  00935F   48                            sll      a
 790  009360   4E                            swap     a
 791  009361   88                            push     a
 792  009362   C60020                        ld       a, monthweekd
 793  009365   A41F                          and      a, #%00011111
 794  009367   32000C                        pop      byte1
 795  00936A   CB000C                        add      a, byte1
 796  00936D   C70020                        ld       monthweekd, a
 797  009370   AE5145                        ldw      x, #RTC_DR2
 798  009373   CD963C                        call     write_RTC_calendar
 799  009376   C7000C                        ld       byte1, a
 800  009379   CD87C5                        call     get_wd_string
 801  00937C   81                            ret      
 802                         bottom_wd  
 803  00937D   C60020                        ld       a, monthweekd
 804  009380   A41F                          and      a, #%00011111
 805  009382   AA20                          or       a, #%00100000
 806  009384   C70020                        ld       monthweekd, a
 807  009387   AE5145                        ldw      x, #RTC_DR2
 808  00938A   CD963C                        call     write_RTC_calendar
 809  00938D   C7000C                        ld       byte1, a
 810  009390   CD87C5                        call     get_wd_string
 811  009393   81                            ret      
 812                         
 813                         .dec_wd:  
 814  009394   C60020                        ld       a, monthweekd
 815  009397   A4E0                          and      a, #%11100000
 816  009399   4E                            swap     a
 817  00939A   44                            srl      a
 818  00939B   A101                          cp       a, #1
 819  00939D   271F                          jreq     top_wd
 820  00939F   4A                            dec      a
 821  0093A0   48                            sll      a
 822  0093A1   4E                            swap     a
 823  0093A2   88                            push     a
 824  0093A3   C60020                        ld       a, monthweekd
 825  0093A6   A41F                          and      a, #%00011111
 826  0093A8   32000C                        pop      byte1
 827  0093AB   CB000C                        add      a, byte1
 828  0093AE   C70020                        ld       monthweekd, a
STMicroelectronics list file postprocessor v1.01   (C)2009-2023   Sat Aug 12 20:15:59 2023
Page 30  Assembler
                                               c:\program files (x86)\stmicroelectronics\st_toolset\stvd\watch\procedures.asm

 829  0093B1   AE5145                        ldw      x, #RTC_DR2
 830  0093B4   CD963C                        call     write_RTC_calendar
 831  0093B7   C7000C                        ld       byte1, a
 832  0093BA   CD87C5                        call     get_wd_string
 833  0093BD   81                            ret      
 834                         top_wd    
 835  0093BE   C60020                        ld       a, monthweekd
 836  0093C1   A41F                          and      a, #%00011111
 837  0093C3   AAE0                          or       a, #%11100000
 838  0093C5   C70020                        ld       monthweekd, a
 839  0093C8   AE5145                        ldw      x, #RTC_DR2
 840  0093CB   CD963C                        call     write_RTC_calendar
 841  0093CE   C7000C                        ld       byte1, a
 842  0093D1   CD87C5                        call     get_wd_string
 843  0093D4   81                            ret      
 844                         
 845                         .inc_yyyy:  
 846  0093D5   550021000C                    mov      byte1, year
 847  0093DA   CD8752                        call     bcd_dec
 848  0093DD   C6000D                        ld       a, byte2
 849  0093E0   A163                          cp       a, #99
 850  0093E2   2714                          jreq     bottom_yyyy
 851  0093E4   4C                            inc      a
 852  0093E5   C7000C                        ld       byte1, a
 853  0093E8   CD876C                        call     dec_bcd
 854  0093EB   C6000D                        ld       a, byte2
 855  0093EE   C70021                        ld       year, a
 856  0093F1   AE5146                        ldw      x, #RTC_DR3
 857  0093F4   CD963C                        call     write_RTC_calendar
 858  0093F7   81                            ret      
 859                         bottom_yyyy  
 860  0093F8   A600                          ld       a, #0
 861  0093FA   C70021                        ld       year, a
 862  0093FD   AE5146                        ldw      x, #RTC_DR3
 863  009400   CD963C                        call     write_RTC_calendar
 864  009403   81                            ret      
 865                                   
 866                         .dec_yyyy:  
 867  009404   550021000C                    mov      byte1, year
 868  009409   CD8752                        call     bcd_dec
 869  00940C   C6000D                        ld       a, byte2
 870  00940F   A100                          cp       a, #0
 871  009411   2714                          jreq     top_yyyy
 872  009413   4A                            dec      a
 873  009414   C7000C                        ld       byte1, a
 874  009417   CD876C                        call     dec_bcd
 875  00941A   C6000D                        ld       a, byte2
 876  00941D   C70021                        ld       year, a
 877  009420   AE5146                        ldw      x, #RTC_DR3
 878  009423   CD963C                        call     write_RTC_calendar
 879  009426   81                            ret      
 880                         top_yyyy  
 881  009427   3563000C                      mov      byte1, #99
 882  00942B   CD876C                        call     dec_bcd
 883  00942E   C6000D                        ld       a, byte2
 884  009431   C70021                        ld       year, a
 885  009434   AE5146                        ldw      x, #RTC_DR3
STMicroelectronics list file postprocessor v1.01   (C)2009-2023   Sat Aug 12 20:15:59 2023
Page 31  Assembler
                                               c:\program files (x86)\stmicroelectronics\st_toolset\stvd\watch\procedures.asm

 886  009437   CD963C                        call     write_RTC_calendar
 887  00943A   81                            ret      
 888                         
 889                         .inc_amm:  
 890  00943B   C6515D                        ld       a, RTC_ALRMAR2
 891  00943E   A47F                          and      a, #%01111111
 892  009440   C7000C                        ld       byte1, a
 893  009443   CD8752                        call     bcd_dec
 894  009446   A63B                          ld       a, #59
 895  009448   C1000D                        cp       a, byte2
 896  00944B   271B                          jreq     bottom_amm
 897  00944D   725C000D                      inc      byte2
 898  009451   55000D000C                    mov      byte1, byte2
 899  009456   CD876C                        call     dec_bcd
 900  009459   C6515D                        ld       a, RTC_ALRMAR2
 901  00945C   A480                          and      a, #%10000000
 902  00945E   CA000D                        or       a, byte2
 903  009461   AE515D                        ldw      x, #RTC_ALRMAR2
 904  009464   CD9658                        call     write_RTC_alarm
 905  009467   81                            ret      
 906                         bottom_amm  
 907  009468   C6515D                        ld       a, RTC_ALRMAR2
 908  00946B   A480                          and      a, #%10000000
 909  00946D   AE515D                        ldw      x, #RTC_ALRMAR2
 910  009470   CD9658                        call     write_RTC_alarm
 911  009473   81                            ret      
 912                         
 913                         .dec_amm:  
 914  009474   C6515D                        ld       a, RTC_ALRMAR2
 915  009477   A47F                          and      a, #%01111111
 916  009479   C7000C                        ld       byte1, a
 917  00947C   CD8752                        call     bcd_dec
 918  00947F   A600                          ld       a, #0
 919  009481   C1000D                        cp       a, byte2
 920  009484   271B                          jreq     top_amm
 921  009486   725A000D                      dec      byte2
 922  00948A   55000D000C                    mov      byte1, byte2
 923  00948F   CD876C                        call     dec_bcd
 924  009492   C6515D                        ld       a, RTC_ALRMAR2
 925  009495   A480                          and      a, #%10000000
 926  009497   CA000D                        or       a, byte2
 927  00949A   AE515D                        ldw      x, #RTC_ALRMAR2
 928  00949D   CD9658                        call     write_RTC_alarm
 929  0094A0   81                            ret      
 930                         top_amm   
 931  0094A1   353B000C                      mov      byte1, #59
 932  0094A5   CD876C                        call     dec_bcd
 933  0094A8   C6515D                        ld       a, RTC_ALRMAR2
 934  0094AB   A480                          and      a, #%10000000
 935  0094AD   CA000D                        or       a, byte2
 936  0094B0   AE515D                        ldw      x, #RTC_ALRMAR2
 937  0094B3   CD9658                        call     write_RTC_alarm
 938  0094B6   81                            ret      
 939                         
 940                         .inc_ahh:  
 941  0094B7   C6515E                        ld       a, RTC_ALRMAR3
 942  0094BA   A43F                          and      a, #%00111111
STMicroelectronics list file postprocessor v1.01   (C)2009-2023   Sat Aug 12 20:15:59 2023
Page 32  Assembler
                                               c:\program files (x86)\stmicroelectronics\st_toolset\stvd\watch\procedures.asm

 943  0094BC   C7000C                        ld       byte1, a
 944  0094BF   CD8752                        call     bcd_dec
 945  0094C2   A617                          ld       a, #23
 946  0094C4   C1000D                        cp       a, byte2
 947  0094C7   271B                          jreq     bottom_ahh
 948  0094C9   725C000D                      inc      byte2
 949  0094CD   55000D000C                    mov      byte1, byte2
 950  0094D2   CD876C                        call     dec_bcd
 951  0094D5   C6515E                        ld       a, RTC_ALRMAR3
 952  0094D8   A4C0                          and      a, #%11000000
 953  0094DA   CA000D                        or       a, byte2
 954  0094DD   AE515E                        ldw      x, #RTC_ALRMAR3
 955  0094E0   CD9658                        call     write_RTC_alarm
 956  0094E3   81                            ret      
 957                         bottom_ahh  
 958  0094E4   C6515E                        ld       a, RTC_ALRMAR3
 959  0094E7   A4C0                          and      a, #%11000000
 960  0094E9   AE515E                        ldw      x, #RTC_ALRMAR3
 961  0094EC   CD9658                        call     write_RTC_alarm
 962  0094EF   81                            ret      
 963                         
 964                         .dec_ahh:  
 965  0094F0   C6515E                        ld       a, RTC_ALRMAR3
 966  0094F3   A43F                          and      a, #%00111111
 967  0094F5   C7000C                        ld       byte1, a
 968  0094F8   CD8752                        call     bcd_dec
 969  0094FB   A600                          ld       a, #0
 970  0094FD   C1000D                        cp       a, byte2
 971  009500   271B                          jreq     top_ahh
 972  009502   725A000D                      dec      byte2
 973  009506   55000D000C                    mov      byte1, byte2
 974  00950B   CD876C                        call     dec_bcd
 975  00950E   C6515E                        ld       a, RTC_ALRMAR3
 976  009511   A4C0                          and      a, #%11000000
 977  009513   CA000D                        or       a, byte2
 978  009516   AE515E                        ldw      x, #RTC_ALRMAR3
 979  009519   CD9658                        call     write_RTC_alarm
 980  00951C   81                            ret      
 981                         top_ahh   
 982  00951D   3517000C                      mov      byte1, #23
 983  009521   CD876C                        call     dec_bcd
 984  009524   C6515E                        ld       a, RTC_ALRMAR3
 985  009527   A4C0                          and      a, #%11000000
 986  009529   CA000D                        or       a, byte2
 987  00952C   AE515E                        ldw      x, #RTC_ALRMAR3
 988  00952F   CD9658                        call     write_RTC_alarm
 989  009532   81                            ret      
 990                         
 991                         .inc_melody:  
 992  009533   C60005                        ld       a, melody
 993  009536   A104                          cp       a, #MELODY_NUM
 994  009538   2709                          jreq     bottom_melody
 995  00953A   725C0005                      inc      melody
 996  00953E   72100004                      bset     beeperflag, #0
 997  009542   81                            ret      
 998                         bottom_melody  
 999  009543   35000005                      mov      melody, #0
STMicroelectronics list file postprocessor v1.01   (C)2009-2023   Sat Aug 12 20:15:59 2023
Page 33  Assembler
                                               c:\program files (x86)\stmicroelectronics\st_toolset\stvd\watch\procedures.asm

1000  009547   72100004                      bset     beeperflag, #0
1001  00954B   81                            ret      
1002                                   
1003                         .dec_melody:  
1004  00954C   C60005                        ld       a, melody
1005  00954F   A100                          cp       a, #0
1006  009551   2709                          jreq     top_melody
1007  009553   725A0005                      dec      melody
1008  009557   72100004                      bset     beeperflag, #0
1009  00955B   81                            ret      
1010                         top_melody  
1011  00955C   35040005                      mov      melody, #MELODY_NUM
1012  009560   72100004                      bset     beeperflag, #0
1013  009564   81                            ret      
1014                                   
1015                         .toggle_alrm_arm:  
1016  009565   35CA5159                      mov      RTC_WPR, #$CA  ;   
1017  009569   35535159                      mov      RTC_WPR, #$53
1018  00956D   90105149                      bcpl     RTC_CR2, #ALRAE
1019  009571   81                            ret      
1020                                   
1021                         .inc_clbr:  
1022  009572   CE516A                        ldw      x, RTC_CALRH  ;  
1023  009575   9E                            ld       a, xh         ;  
1024  009576   A401                          and      a, #%00000001  ;  
1025  009578   95                            ld       xh, a
1026  009579   CF001A                        ldw      calibr, x
1027                                   
1028  00957C   720F516A13                    btjf     RTC_CALRH, #CALP, clbrv_neg
1029  009581   AE01FF                        ldw      x, #511       ;  
1030  009584   72B0001A                      subw     x, calibr
1031                                   
1032  009588   A301FF                        cpw      x, #511
1033  00958B   274E                          jreq     end_incr      ; - -  
                                                                ;
1034                                                          ; 
1035                                   
1036  00958D   5C                            incw     x             ;   1
1037  00958E   CF001A                        ldw      calibr, x
1038  009591   2013                          jra      rec_CALR
1039  009593   81                            ret      
1040                         
1041                         clbrv_neg                        ;  
1042  009594   A30000                        cpw      x, #0
1043  009597   2706                          jreq     change_sign
1044  009599   5A                            decw     x
1045  00959A   CF001A                        ldw      calibr, x
1046  00959D   2007                          jra      rec_CALR
1047                         change_sign  
1048  00959F   721E516A                      bset     RTC_CALRH, #CALP
1049                                                          ;incw x
1050  0095A3   CF001A                        ldw      calibr, x
1051                                   
1052                         rec_CALR  
1053  0095A6   720F516A1C                    btjf     RTC_CALRH, #CALP, rec_neg
1054                         waitp_REACLPF  
1055  0095AB   7202514CFB                    btjt     RTC_ISR1, #RECALPF, waitp_REACLPF
STMicroelectronics list file postprocessor v1.01   (C)2009-2023   Sat Aug 12 20:15:59 2023
Page 34  Assembler
                                               c:\program files (x86)\stmicroelectronics\st_toolset\stvd\watch\procedures.asm

1056  0095B0   AE01FF                        ldw      x, #511
1057  0095B3   72B0001A                      subw     x, calibr
1058  0095B7   9E                            ld       a, xh
1059  0095B8   7211516A                      bres     RTC_CALRH, #CALM8
1060  0095BC   CA516A                        or       a, RTC_CALRH
1061  0095BF   C7516A                        ld       RTC_CALRH, a
1062  0095C2   9F                            ld       a, xl
1063  0095C3   C7516B                        ld       RTC_CALRL, a
1064  0095C6   81                            ret      
1065                         rec_neg   
1066                         waitn_REACLPF  
1067  0095C7   7202514CFB                    btjt     RTC_ISR1, #RECALPF, waitn_REACLPF
1068  0095CC   9E                            ld       a, xh
1069  0095CD   7211516A                      bres     RTC_CALRH, #CALM8
1070  0095D1   CA516A                        or       a, RTC_CALRH
1071  0095D4   C7516A                        ld       RTC_CALRH, a
1072  0095D7   9F                            ld       a, xl
1073  0095D8   C7516B                        ld       RTC_CALRL, a
1074                         end_incr  
1075  0095DB   81                            ret      
1076                         
1077                         .dec_clbr:  
1078  0095DC   CE516A                        ldw      x, RTC_CALRH  ;  
1079  0095DF   9E                            ld       a, xh         ;  
1080  0095E0   A401                          and      a, #%00000001  ;  
1081  0095E2   95                            ld       xh, a
1082  0095E3   CF001A                        ldw      calibr, x
1083                                   
1084  0095E6   720E516A0B                    btjt     RTC_CALRH, #CALP, clbrv_pos
1085                                   
1086  0095EB   A301FF                        cpw      x, #511       ; - -  
1087  0095EE   2727                          jreq     end_decr      ; 
1088                                   
1089  0095F0   5C                            incw     x             ;   1
1090  0095F1   CF001A                        ldw      calibr, x
1091  0095F4   20D1                          jra      rec_neg
1092                                   
1093                         clbrv_pos                        ;  
1094  0095F6   AE01FF                        ldw      x, #511       ;  
1095  0095F9   72B0001A                      subw     x, calibr
1096  0095FD   CF001A                        ldw      calibr, x
1097                                   
1098  009600   A30000                        cpw      x, #0         ;    
1099  009603   2706                          jreq     sign_plus_minus  ; 
1100                         
1101  009605   5A                            decw     x             ;   --  
                                                                ;
1102  009606   CF001A                        ldw      calibr, x
1103  009609   209B                          jra      rec_CALR
1104                         
1105                         sign_plus_minus  
1106  00960B   721F516A                      bres     RTC_CALRH, #CALP  ;   
1107  00960F   AE0000                        ldw      x, #0
1108  009612   CF001A                        ldw      calibr, x
1109  009615   20B0                          jra      rec_neg
1110                                   
1111                         end_decr  
STMicroelectronics list file postprocessor v1.01   (C)2009-2023   Sat Aug 12 20:15:59 2023
Page 35  Assembler
                                               c:\program files (x86)\stmicroelectronics\st_toolset\stvd\watch\procedures.asm

1112  009617   81                            ret      
1113                                   
1114                         toggle_hrly:  
1115  009618   90100023                      bcpl     hrly, #0
1116  00961C   81                            ret      
1117                         
1118                         .readtime:  
1119  00961D   555140001C                    mov      seconds, RTC_TR1
1120  009622   555141001D                    mov      minutes, RTC_TR2
1121  009627   555142001E                    mov      hours, RTC_TR3
1122  00962C   555144001F                    mov      date, RTC_DR1
1123  009631   5551450020                    mov      monthweekd, RTC_DR2
1124  009636   5551460021                    mov      year, RTC_DR3
1125  00963B   81                            ret      
1126                                   
1127                         .write_RTC_calendar:  
1128  00963C   35CA5159                      mov      RTC_WPR, #$CA  ;   
1129  009640   35535159                      mov      RTC_WPR, #$53
1130  009644   721E514C                      bset     RTC_ISR1, #INIT  ;   
1131                         wait_INITF                       ; 
1132  009648   720D514CFB                    btjf     RTC_ISR1, #INITF, wait_INITF
1133  00964D   F7                            ld       (x), a
1134  00964E   721F514C                      bres     RTC_ISR1, #INIT  ;   
1135                         wait_RSF  
1136  009652   720B514CFB                    btjf     RTC_ISR1, #RSF, wait_RSF
1137  009657   81                            ret      
1138                                   
1139                         .write_RTC_alarm:  
1140  009658   72115149                      bres     RTC_CR2, #ALRAE
1141  00965C   F7                            ld       (x), a
1142  00965D   72105149                      bset     RTC_CR2, #ALRAE
1143  009661   81                            ret      
1144                                   
1145                         .corr_daystab:  
1146  009662   C60021                        ld       a, year
1147  009665   A100                          cp       a, #0
1148  009667   272C                          jreq     not_leap
1149  009669   C7000C                        ld       byte1, a
1150  00966C   CD8752                        call     bcd_dec
1151  00966F   3B000D                        push     byte2
1152  009672   4B00                          push     #0
1153  009674   85                            popw     x
1154  009675   A604                          ld       a, #4
1155  009677   62                            div      x, a
1156  009678   A100                          cp       a, #0
1157  00967A   2619                          jrne     not_leap
1158  00967C   AE108A                        ldw      x, #daystab
1159  00967F   A61D                          ld       a, #29
1160  009681   35AE5053                      mov      FLASH_DUKR, #$AE
1161  009685   35565053                      mov      FLASH_DUKR, #$56
1162                         wait_DUL_l  
1163  009689   72075054FB                    btjf     FLASH_IAPSR, #3, wait_DUL_l
1164  00968E   E701                          ld       (1,x), a
1165  009690   72175054                      bres     FLASH_IAPSR, #3
1166  009694   81                            ret      
1167                         not_leap  
1168  009695   AE108A                        ldw      x, #daystab
STMicroelectronics list file postprocessor v1.01   (C)2009-2023   Sat Aug 12 20:15:59 2023
Page 36  Assembler
                                               c:\program files (x86)\stmicroelectronics\st_toolset\stvd\watch\procedures.asm

1169  009698   A61C                          ld       a, #28
1170  00969A   35AE5053                      mov      FLASH_DUKR, #$AE
1171  00969E   35565053                      mov      FLASH_DUKR, #$56
1172                         wait_DUL_nl  
1173  0096A2   72075054FB                    btjf     FLASH_IAPSR, #3, wait_DUL_nl
1174  0096A7   E701                          ld       (1,x), a
1175  0096A9   72175054                      bres     FLASH_IAPSR, #3
1176  0096AD   81                            ret      
1177                         
1178                         check_hrly:  
1179  0096AE   7200002301                    btjt     hrly, #0, hrly_on  ;    
                                                                ;,
1180  0096B3   81                            ret                    ;  
1181                         hrly_on   
1182  0096B4   55001D000C                    mov      byte1, minutes  ;  -   
                                                                ;
1183  0096B9   CD8752                        call     bcd_dec
1184  0096BC   A63B                          ld       a, #59
1185  0096BE   C0000D                        sub      a, byte2 
1186  0096C1   AE003C                        ldw      x, #60        ;    
                                                                ;
1187  0096C4   42                            mul      x, a
1188  0096C5   CF0029                        ldw      scndslft, x
1189                         
1190  0096C8   55001C000C                    mov      byte1, seconds
1191  0096CD   CD8752                        call     bcd_dec
1192  0096D0   A63B                          ld       a, #59
1193  0096D2   C0000D                        sub      a, byte2
1194  0096D5   5F                            clrw     x
1195  0096D6   97                            ld       xl, a
1196  0096D7   72BB0029                      addw     x, scndslft
1197                         skip_ss_sbt  
1198  0096DB   CD96E6                        call     WUT_setup_hrly  ;   
                                                                ;
1199  0096DE   CF5154                        ldw      RTC_WUTRH, x
1200  0096E1   72145149                      bset     RTC_CR2, #WUTE  ;   
1201  0096E5   81                            ret      
1202                                   
1203                         WUT_setup_hrly:  
1204  0096E6   72155149                      bres     RTC_CR2, #WUTE  ;   
1205                         wait_WUTWF_hrly  
1206  0096EA   7205514CFB                    btjf     RTC_ISR1, #WUTWF, wait_WUTWF_hrly
1207  0096EF   72145148                      bset     RTC_CR1, #WUCKSEL2
1208  0096F3   72135148                      bres     RTC_CR1, #WUCKSEL1
1209  0096F7   72115148                      bres     RTC_CR1, #WUCKSEL0  ;  - ck_spre (1 
                                                                ;)
1210  0096FB   81                            ret      
1211                                   
1212                         .WUT_setup_play:  
1213  0096FC   72155149                      bres     RTC_CR2, #WUTE  ;   
1214                         wait_WUTWF_play  
1215  009700   7205514CFB                    btjf     RTC_ISR1, #WUTWF, wait_WUTWF_play
1216  009705   72155148                      bres     RTC_CR1, #WUCKSEL2
1217  009709   72125148                      bset     RTC_CR1, #WUCKSEL1
1218  00970D   72105148                      bset     RTC_CR1, #WUCKSEL0  ;   LSE 
                                                                ;RTCCLK/2
1219  009711   81                            ret      
STMicroelectronics list file postprocessor v1.01   (C)2009-2023   Sat Aug 12 20:15:59 2023
Page 37  Assembler
                                               c:\program files (x86)\stmicroelectronics\st_toolset\stvd\watch\procedures.asm

1220  009712                                 end      
STMicroelectronics list file postprocessor v1.01   (C)2009-2023   Sat Aug 12 20:15:59 2023
Page 38  Assembler
                                               c:\program files (x86)\stmicroelectronics\st_toolset\stvd\watch\procedures.asm

Symbol Name                       Value     Call       Type  Scope      Rel.  Line  Privacy  Segment   Size  Bytes File

ADC1_CR1                              5340         no  WORD  Internal   ABS    537  private  text         0     0  c:\program files (x86)\stmicroelectronics\st_toolset\stvd\watch\stm8l051f3.inc
ADC1_CR2                              5341         no  WORD  Internal   ABS    539  private  text         0     0  c:\program files (x86)\stmicroelectronics\st_toolset\stvd\watch\stm8l051f3.inc
ADC1_CR3                              5342         no  WORD  Internal   ABS    541  private  text         0     0  c:\program files (x86)\stmicroelectronics\st_toolset\stvd\watch\stm8l051f3.inc
ADC1_SR                               5343         no  WORD  Internal   ABS    543  private  text         0     0  c:\program files (x86)\stmicroelectronics\st_toolset\stvd\watch\stm8l051f3.inc
ADC1_DRH                              5344         no  WORD  Internal   ABS    545  private  text         0     0  c:\program files (x86)\stmicroelectronics\st_toolset\stvd\watch\stm8l051f3.inc
ADC1_DRL                              5345         no  WORD  Internal   ABS    547  private  text         0     0  c:\program files (x86)\stmicroelectronics\st_toolset\stvd\watch\stm8l051f3.inc
ADC1_HTRH                             5346         no  WORD  Internal   ABS    549  private  text         0     0  c:\program files (x86)\stmicroelectronics\st_toolset\stvd\watch\stm8l051f3.inc
ADC1_HTRL                             5347         no  WORD  Internal   ABS    551  private  text         0     0  c:\program files (x86)\stmicroelectronics\st_toolset\stvd\watch\stm8l051f3.inc
ADC1_LTRH                             5348         no  WORD  Internal   ABS    553  private  text         0     0  c:\program files (x86)\stmicroelectronics\st_toolset\stvd\watch\stm8l051f3.inc
ADC1_LTRL                             5349         no  WORD  Internal   ABS    555  private  text         0     0  c:\program files (x86)\stmicroelectronics\st_toolset\stvd\watch\stm8l051f3.inc
ADC1_SQR1                             534A         no  WORD  Internal   ABS    557  private  text         0     0  c:\program files (x86)\stmicroelectronics\st_toolset\stvd\watch\stm8l051f3.inc
ADC1_SQR2                             534B         no  WORD  Internal   ABS    559  private  text         0     0  c:\program files (x86)\stmicroelectronics\st_toolset\stvd\watch\stm8l051f3.inc
ADC1_SQR3                             534C         no  WORD  Internal   ABS    561  private  text         0     0  c:\program files (x86)\stmicroelectronics\st_toolset\stvd\watch\stm8l051f3.inc
ADC1_SQR4                             534D         no  WORD  Internal   ABS    563  private  text         0     0  c:\program files (x86)\stmicroelectronics\st_toolset\stvd\watch\stm8l051f3.inc
ADC1_TRIGR1                           534E         no  WORD  Internal   ABS    565  private  text         0     0  c:\program files (x86)\stmicroelectronics\st_toolset\stvd\watch\stm8l051f3.inc
ADC1_TRIGR2                           534F         no  WORD  Internal   ABS    567  private  text         0     0  c:\program files (x86)\stmicroelectronics\st_toolset\stvd\watch\stm8l051f3.inc
ADC1_TRIGR3                           5350         no  WORD  Internal   ABS    569  private  text         0     0  c:\program files (x86)\stmicroelectronics\st_toolset\stvd\watch\stm8l051f3.inc
ADC1_TRIGR4                           5351         no  WORD  Internal   ABS    571  private  text         0     0  c:\program files (x86)\stmicroelectronics\st_toolset\stvd\watch\stm8l051f3.inc
ALRAE                                 0000         no  WORD  Internal   ABS     33  private  undef        0     0  -
ALRAWF                                0000         no  WORD  Internal   ABS     34  private  undef        0     0  -

BEEP_CSR1                             50F0         no  WORD  Internal   ABS    255  private  text         0     0  c:\program files (x86)\stmicroelectronics\st_toolset\stvd\watch\stm8l051f3.inc
BEEP_CSR2                             50F3         no  WORD  Internal   ABS    257  private  text         0     0  c:\program files (x86)\stmicroelectronics\st_toolset\stvd\watch\stm8l051f3.inc

CLK_CKDIVR                            50C0         no  WORD  Internal   ABS    202  private  text         0     0  c:\program files (x86)\stmicroelectronics\st_toolset\stvd\watch\stm8l051f3.inc
CLK_CRTCR                             50C1         no  WORD  Internal   ABS    204  private  text         0     0  c:\program files (x86)\stmicroelectronics\st_toolset\stvd\watch\stm8l051f3.inc
CLK_ICKCR                             50C2         no  WORD  Internal   ABS    206  private  text         0     0  c:\program files (x86)\stmicroelectronics\st_toolset\stvd\watch\stm8l051f3.inc
CLK_PCKENR1                           50C3         no  WORD  Internal   ABS    208  private  text         0     0  c:\program files (x86)\stmicroelectronics\st_toolset\stvd\watch\stm8l051f3.inc
CLK_PCKENR2                           50C4         no  WORD  Internal   ABS    210  private  text         0     0  c:\program files (x86)\stmicroelectronics\st_toolset\stvd\watch\stm8l051f3.inc
CLK_CCOR                              50C5         no  WORD  Internal   ABS    212  private  text         0     0  c:\program files (x86)\stmicroelectronics\st_toolset\stvd\watch\stm8l051f3.inc
CLK_ECKCR                             50C6         no  WORD  Internal   ABS    214  private  text         0     0  c:\program files (x86)\stmicroelectronics\st_toolset\stvd\watch\stm8l051f3.inc
CLK_SCSR                              50C7         no  WORD  Internal   ABS    216  private  text         0     0  c:\program files (x86)\stmicroelectronics\st_toolset\stvd\watch\stm8l051f3.inc
CLK_SWR                               50C8         no  WORD  Internal   ABS    218  private  text         0     0  c:\program files (x86)\stmicroelectronics\st_toolset\stvd\watch\stm8l051f3.inc
CLK_SWCR                              50C9         no  WORD  Internal   ABS    220  private  text         0     0  c:\program files (x86)\stmicroelectronics\st_toolset\stvd\watch\stm8l051f3.inc
CLK_CSSR                              50CA         no  WORD  Internal   ABS    222  private  text         0     0  c:\program files (x86)\stmicroelectronics\st_toolset\stvd\watch\stm8l051f3.inc
CLK_CBEEPR                            50CB         no  WORD  Internal   ABS    224  private  text         0     0  c:\program files (x86)\stmicroelectronics\st_toolset\stvd\watch\stm8l051f3.inc
CLK_HSICALR                           50CC         no  WORD  Internal   ABS    226  private  text         0     0  c:\program files (x86)\stmicroelectronics\st_toolset\stvd\watch\stm8l051f3.inc
CLK_HSITRIMR                          50CD         no  WORD  Internal   ABS    228  private  text         0     0  c:\program files (x86)\stmicroelectronics\st_toolset\stvd\watch\stm8l051f3.inc
CLK_HSIUNLCKR                         50CE         no  WORD  Internal   ABS    230  private  text         0     0  c:\program files (x86)\stmicroelectronics\st_toolset\stvd\watch\stm8l051f3.inc
CLK_REGCSR                            50CF         no  WORD  Internal   ABS    232  private  text         0     0  c:\program files (x86)\stmicroelectronics\st_toolset\stvd\watch\stm8l051f3.inc
CLK_PCKENR3                           50D0         no  WORD  Internal   ABS    234  private  text         0     0  c:\program files (x86)\stmicroelectronics\st_toolset\stvd\watch\stm8l051f3.inc
CSS_LSE_CSR                           5190         no  WORD  Internal   ABS    329  private  text         0     0  c:\program files (x86)\stmicroelectronics\st_toolset\stvd\watch\stm8l051f3.inc
CFG_GCR                               7F60         no  WORD  Internal   ABS    625  private  text         0     0  c:\program files (x86)\stmicroelectronics\st_toolset\stvd\watch\stm8l051f3.inc
CEN                                   0000         no  WORD  Internal   ABS     28  private  undef        0     0  -
CFG_GCR_SWD                           0000         no  WORD  Internal   ABS     36  private  undef        0     0  -
CALP                                  0007         no  WORD  Internal   ABS     47  private  undef        0     0  -
CALM8                                 0000         no  WORD  Internal   ABS     49  private  undef        0     0  -

DMA1_GCSR                             5070         no  WORD  Internal   ABS     81  private  text         0     0  c:\program files (x86)\stmicroelectronics\st_toolset\stvd\watch\stm8l051f3.inc
DMA1_GIR1                             5071         no  WORD  Internal   ABS     83  private  text         0     0  c:\program files (x86)\stmicroelectronics\st_toolset\stvd\watch\stm8l051f3.inc
DMA1_C0CR                             5075         no  WORD  Internal   ABS     85  private  text         0     0  c:\program files (x86)\stmicroelectronics\st_toolset\stvd\watch\stm8l051f3.inc
DMA1_C0SPR                            5076         no  WORD  Internal   ABS     87  private  text         0     0  c:\program files (x86)\stmicroelectronics\st_toolset\stvd\watch\stm8l051f3.inc
DMA1_C0NDTR                           5077         no  WORD  Internal   ABS     89  private  text         0     0  c:\program files (x86)\stmicroelectronics\st_toolset\stvd\watch\stm8l051f3.inc
DMA1_C0PARH                           5078         no  WORD  Internal   ABS     91  private  text         0     0  c:\program files (x86)\stmicroelectronics\st_toolset\stvd\watch\stm8l051f3.inc
DMA1_C0PARL                           5079         no  WORD  Internal   ABS     93  private  text         0     0  c:\program files (x86)\stmicroelectronics\st_toolset\stvd\watch\stm8l051f3.inc
STMicroelectronics list file postprocessor v1.01   (C)2009-2023   Sat Aug 12 20:15:59 2023
Page 39  Assembler
                                               c:\program files (x86)\stmicroelectronics\st_toolset\stvd\watch\procedures.asm

DMA1_C0M0ARH                          507B         no  WORD  Internal   ABS     95  private  text         0     0  c:\program files (x86)\stmicroelectronics\st_toolset\stvd\watch\stm8l051f3.inc
DMA1_C0M0ARL                          507C         no  WORD  Internal   ABS     97  private  text         0     0  c:\program files (x86)\stmicroelectronics\st_toolset\stvd\watch\stm8l051f3.inc
DMA1_C1CR                             507F         no  WORD  Internal   ABS     99  private  text         0     0  c:\program files (x86)\stmicroelectronics\st_toolset\stvd\watch\stm8l051f3.inc
DMA1_C1SPR                            5080         no  WORD  Internal   ABS    101  private  text         0     0  c:\program files (x86)\stmicroelectronics\st_toolset\stvd\watch\stm8l051f3.inc
DMA1_C1NDTR                           5081         no  WORD  Internal   ABS    103  private  text         0     0  c:\program files (x86)\stmicroelectronics\st_toolset\stvd\watch\stm8l051f3.inc
DMA1_C1PARH                           5082         no  WORD  Internal   ABS    105  private  text         0     0  c:\program files (x86)\stmicroelectronics\st_toolset\stvd\watch\stm8l051f3.inc
DMA1_C1PARL                           5083         no  WORD  Internal   ABS    107  private  text         0     0  c:\program files (x86)\stmicroelectronics\st_toolset\stvd\watch\stm8l051f3.inc
DMA1_C1M0ARH                          5085         no  WORD  Internal   ABS    109  private  text         0     0  c:\program files (x86)\stmicroelectronics\st_toolset\stvd\watch\stm8l051f3.inc
DMA1_C1M0ARL                          5086         no  WORD  Internal   ABS    111  private  text         0     0  c:\program files (x86)\stmicroelectronics\st_toolset\stvd\watch\stm8l051f3.inc
DMA1_C2CR                             5089         no  WORD  Internal   ABS    113  private  text         0     0  c:\program files (x86)\stmicroelectronics\st_toolset\stvd\watch\stm8l051f3.inc
DMA1_C2SPR                            508A         no  WORD  Internal   ABS    115  private  text         0     0  c:\program files (x86)\stmicroelectronics\st_toolset\stvd\watch\stm8l051f3.inc
DMA1_C2NDTR                           508B         no  WORD  Internal   ABS    117  private  text         0     0  c:\program files (x86)\stmicroelectronics\st_toolset\stvd\watch\stm8l051f3.inc
DMA1_C2PARH                           508C         no  WORD  Internal   ABS    119  private  text         0     0  c:\program files (x86)\stmicroelectronics\st_toolset\stvd\watch\stm8l051f3.inc
DMA1_C2PARL                           508D         no  WORD  Internal   ABS    121  private  text         0     0  c:\program files (x86)\stmicroelectronics\st_toolset\stvd\watch\stm8l051f3.inc
DMA1_C2M0ARH                          508F         no  WORD  Internal   ABS    123  private  text         0     0  c:\program files (x86)\stmicroelectronics\st_toolset\stvd\watch\stm8l051f3.inc
DMA1_C2M0ARL                          5090         no  WORD  Internal   ABS    125  private  text         0     0  c:\program files (x86)\stmicroelectronics\st_toolset\stvd\watch\stm8l051f3.inc
DMA1_C3CR                             5093         no  WORD  Internal   ABS    127  private  text         0     0  c:\program files (x86)\stmicroelectronics\st_toolset\stvd\watch\stm8l051f3.inc
DMA1_C3SPR                            5094         no  WORD  Internal   ABS    129  private  text         0     0  c:\program files (x86)\stmicroelectronics\st_toolset\stvd\watch\stm8l051f3.inc
DMA1_C3NDTR                           5095         no  WORD  Internal   ABS    131  private  text         0     0  c:\program files (x86)\stmicroelectronics\st_toolset\stvd\watch\stm8l051f3.inc
DMA1_C3PARH_C3M1ARH                   5096         no  WORD  Internal   ABS    133  private  text         0     0  c:\program files (x86)\stmicroelectronics\st_toolset\stvd\watch\stm8l051f3.inc
DMA1_C3PARL_C3M1ARL                   5097         no  WORD  Internal   ABS    135  private  text         0     0  c:\program files (x86)\stmicroelectronics\st_toolset\stvd\watch\stm8l051f3.inc
DMA_C3M0EAR                           5098         no  WORD  Internal   ABS    137  private  text         0     0  c:\program files (x86)\stmicroelectronics\st_toolset\stvd\watch\stm8l051f3.inc
DMA1_C3M0ARH                          5099         no  WORD  Internal   ABS    139  private  text         0     0  c:\program files (x86)\stmicroelectronics\st_toolset\stvd\watch\stm8l051f3.inc
DMA1_C3M0ARL                          509A         no  WORD  Internal   ABS    141  private  text         0     0  c:\program files (x86)\stmicroelectronics\st_toolset\stvd\watch\stm8l051f3.inc

EXTI_CR1                              50A0         no  WORD  Internal   ABS    155  private  text         0     0  c:\program files (x86)\stmicroelectronics\st_toolset\stvd\watch\stm8l051f3.inc
EXTI_CR2                              50A1         no  WORD  Internal   ABS    157  private  text         0     0  c:\program files (x86)\stmicroelectronics\st_toolset\stvd\watch\stm8l051f3.inc
EXTI_CR3                              50A2         no  WORD  Internal   ABS    159  private  text         0     0  c:\program files (x86)\stmicroelectronics\st_toolset\stvd\watch\stm8l051f3.inc
EXTI_SR1                              50A3         no  WORD  Internal   ABS    161  private  text         0     0  c:\program files (x86)\stmicroelectronics\st_toolset\stvd\watch\stm8l051f3.inc
EXTI_SR2                              50A4         no  WORD  Internal   ABS    163  private  text         0     0  c:\program files (x86)\stmicroelectronics\st_toolset\stvd\watch\stm8l051f3.inc
EXTI_CONF1                            50A5         no  WORD  Internal   ABS    165  private  text         0     0  c:\program files (x86)\stmicroelectronics\st_toolset\stvd\watch\stm8l051f3.inc
EXTI_CR4                              50AA         no  WORD  Internal   ABS    181  private  text         0     0  c:\program files (x86)\stmicroelectronics\st_toolset\stvd\watch\stm8l051f3.inc
EXTI_CONF2                            50AB         no  WORD  Internal   ABS    183  private  text         0     0  c:\program files (x86)\stmicroelectronics\st_toolset\stvd\watch\stm8l051f3.inc

FLASH_CR1                             5050         no  WORD  Internal   ABS     68  private  text         0     0  c:\program files (x86)\stmicroelectronics\st_toolset\stvd\watch\stm8l051f3.inc
FLASH_CR2                             5051         no  WORD  Internal   ABS     70  private  text         0     0  c:\program files (x86)\stmicroelectronics\st_toolset\stvd\watch\stm8l051f3.inc
FLASH_PUKR                            5052         no  WORD  Internal   ABS     72  private  text         0     0  c:\program files (x86)\stmicroelectronics\st_toolset\stvd\watch\stm8l051f3.inc
FLASH_DUKR                            5053         no  WORD  Internal   ABS     74  private  text         0     0  c:\program files (x86)\stmicroelectronics\st_toolset\stvd\watch\stm8l051f3.inc
FLASH_IAPSR                           5054         no  WORD  Internal   ABS     76  private  text         0     0  c:\program files (x86)\stmicroelectronics\st_toolset\stvd\watch\stm8l051f3.inc

IWDG_KR                               50E0         no  WORD  Internal   ABS    246  private  text         0     0  c:\program files (x86)\stmicroelectronics\st_toolset\stvd\watch\stm8l051f3.inc
IWDG_PR                               50E1         no  WORD  Internal   ABS    248  private  text         0     0  c:\program files (x86)\stmicroelectronics\st_toolset\stvd\watch\stm8l051f3.inc
IWDG_RLR                              50E2         no  WORD  Internal   ABS    250  private  text         0     0  c:\program files (x86)\stmicroelectronics\st_toolset\stvd\watch\stm8l051f3.inc
I2C1_CR1                              5210         no  WORD  Internal   ABS    353  private  text         0     0  c:\program files (x86)\stmicroelectronics\st_toolset\stvd\watch\stm8l051f3.inc
I2C1_CR2                              5211         no  WORD  Internal   ABS    355  private  text         0     0  c:\program files (x86)\stmicroelectronics\st_toolset\stvd\watch\stm8l051f3.inc
I2C1_FREQR                            5212         no  WORD  Internal   ABS    357  private  text         0     0  c:\program files (x86)\stmicroelectronics\st_toolset\stvd\watch\stm8l051f3.inc
I2C1_OARL                             5213         no  WORD  Internal   ABS    359  private  text         0     0  c:\program files (x86)\stmicroelectronics\st_toolset\stvd\watch\stm8l051f3.inc
I2C1_OARH                             5214         no  WORD  Internal   ABS    361  private  text         0     0  c:\program files (x86)\stmicroelectronics\st_toolset\stvd\watch\stm8l051f3.inc
I2C1_OAR2                             5215         no  WORD  Internal   ABS    363  private  text         0     0  c:\program files (x86)\stmicroelectronics\st_toolset\stvd\watch\stm8l051f3.inc
I2C1_DR                               5216         no  WORD  Internal   ABS    365  private  text         0     0  c:\program files (x86)\stmicroelectronics\st_toolset\stvd\watch\stm8l051f3.inc
I2C1_SR1                              5217         no  WORD  Internal   ABS    367  private  text         0     0  c:\program files (x86)\stmicroelectronics\st_toolset\stvd\watch\stm8l051f3.inc
I2C1_SR2                              5218         no  WORD  Internal   ABS    369  private  text         0     0  c:\program files (x86)\stmicroelectronics\st_toolset\stvd\watch\stm8l051f3.inc
I2C1_SR3                              5219         no  WORD  Internal   ABS    371  private  text         0     0  c:\program files (x86)\stmicroelectronics\st_toolset\stvd\watch\stm8l051f3.inc
I2C1_ITR                              521A         no  WORD  Internal   ABS    373  private  text         0     0  c:\program files (x86)\stmicroelectronics\st_toolset\stvd\watch\stm8l051f3.inc
I2C1_CCRL                             521B         no  WORD  Internal   ABS    375  private  text         0     0  c:\program files (x86)\stmicroelectronics\st_toolset\stvd\watch\stm8l051f3.inc
I2C1_CCRH                             521C         no  WORD  Internal   ABS    377  private  text         0     0  c:\program files (x86)\stmicroelectronics\st_toolset\stvd\watch\stm8l051f3.inc
I2C1_TRISER                           521D         no  WORD  Internal   ABS    379  private  text         0     0  c:\program files (x86)\stmicroelectronics\st_toolset\stvd\watch\stm8l051f3.inc
STMicroelectronics list file postprocessor v1.01   (C)2009-2023   Sat Aug 12 20:15:59 2023
Page 40  Assembler
                                               c:\program files (x86)\stmicroelectronics\st_toolset\stvd\watch\procedures.asm

I2C1_PECR                             521E         no  WORD  Internal   ABS    381  private  text         0     0  c:\program files (x86)\stmicroelectronics\st_toolset\stvd\watch\stm8l051f3.inc
IR_CR                                 52FF         no  WORD  Internal   ABS    532  private  text         0     0  c:\program files (x86)\stmicroelectronics\st_toolset\stvd\watch\stm8l051f3.inc
ITC_SPR1                              7F70         no  WORD  Internal   ABS    630  private  text         0     0  c:\program files (x86)\stmicroelectronics\st_toolset\stvd\watch\stm8l051f3.inc
ITC_SPR2                              7F71         no  WORD  Internal   ABS    632  private  text         0     0  c:\program files (x86)\stmicroelectronics\st_toolset\stvd\watch\stm8l051f3.inc
ITC_SPR3                              7F72         no  WORD  Internal   ABS    634  private  text         0     0  c:\program files (x86)\stmicroelectronics\st_toolset\stvd\watch\stm8l051f3.inc
ITC_SPR4                              7F73         no  WORD  Internal   ABS    636  private  text         0     0  c:\program files (x86)\stmicroelectronics\st_toolset\stvd\watch\stm8l051f3.inc
ITC_SPR5                              7F74         no  WORD  Internal   ABS    638  private  text         0     0  c:\program files (x86)\stmicroelectronics\st_toolset\stvd\watch\stm8l051f3.inc
ITC_SPR6                              7F75         no  WORD  Internal   ABS    640  private  text         0     0  c:\program files (x86)\stmicroelectronics\st_toolset\stvd\watch\stm8l051f3.inc
ITC_SPR7                              7F76         no  WORD  Internal   ABS    642  private  text         0     0  c:\program files (x86)\stmicroelectronics\st_toolset\stvd\watch\stm8l051f3.inc
ITC_SPR8                              7F77         no  WORD  Internal   ABS    644  private  text         0     0  c:\program files (x86)\stmicroelectronics\st_toolset\stvd\watch\stm8l051f3.inc
INIT                                  0007         no  WORD  Internal   ABS     30  private  undef        0     0  -
INITF                                 0006         no  WORD  Internal   ABS     31  private  undef        0     0  -

MELODY_NUM                            0004         no  WORD  Internal   ABS     40  private  undef        0     0  -

PA_ODR                                5000         no  WORD  Internal   ABS     16  private  text         0     0  c:\program files (x86)\stmicroelectronics\st_toolset\stvd\watch\stm8l051f3.inc
PA_IDR                                5001         no  WORD  Internal   ABS     18  private  text         0     0  c:\program files (x86)\stmicroelectronics\st_toolset\stvd\watch\stm8l051f3.inc
PA_DDR                                5002         no  WORD  Internal   ABS     20  private  text         0     0  c:\program files (x86)\stmicroelectronics\st_toolset\stvd\watch\stm8l051f3.inc
PA_CR1                                5003         no  WORD  Internal   ABS     22  private  text         0     0  c:\program files (x86)\stmicroelectronics\st_toolset\stvd\watch\stm8l051f3.inc
PA_CR2                                5004         no  WORD  Internal   ABS     24  private  text         0     0  c:\program files (x86)\stmicroelectronics\st_toolset\stvd\watch\stm8l051f3.inc
PB_ODR                                5005         no  WORD  Internal   ABS     29  private  text         0     0  c:\program files (x86)\stmicroelectronics\st_toolset\stvd\watch\stm8l051f3.inc
PB_IDR                                5006         no  WORD  Internal   ABS     31  private  text         0     0  c:\program files (x86)\stmicroelectronics\st_toolset\stvd\watch\stm8l051f3.inc
PB_DDR                                5007         no  WORD  Internal   ABS     33  private  text         0     0  c:\program files (x86)\stmicroelectronics\st_toolset\stvd\watch\stm8l051f3.inc
PB_CR1                                5008         no  WORD  Internal   ABS     35  private  text         0     0  c:\program files (x86)\stmicroelectronics\st_toolset\stvd\watch\stm8l051f3.inc
PB_CR2                                5009         no  WORD  Internal   ABS     37  private  text         0     0  c:\program files (x86)\stmicroelectronics\st_toolset\stvd\watch\stm8l051f3.inc
PC_ODR                                500A         no  WORD  Internal   ABS     42  private  text         0     0  c:\program files (x86)\stmicroelectronics\st_toolset\stvd\watch\stm8l051f3.inc
PC_IDR                                500B         no  WORD  Internal   ABS     44  private  text         0     0  c:\program files (x86)\stmicroelectronics\st_toolset\stvd\watch\stm8l051f3.inc
PC_DDR                                500C         no  WORD  Internal   ABS     46  private  text         0     0  c:\program files (x86)\stmicroelectronics\st_toolset\stvd\watch\stm8l051f3.inc
PC_CR1                                500D         no  WORD  Internal   ABS     48  private  text         0     0  c:\program files (x86)\stmicroelectronics\st_toolset\stvd\watch\stm8l051f3.inc
PC_CR2                                500E         no  WORD  Internal   ABS     50  private  text         0     0  c:\program files (x86)\stmicroelectronics\st_toolset\stvd\watch\stm8l051f3.inc
PD_ODR                                500F         no  WORD  Internal   ABS     55  private  text         0     0  c:\program files (x86)\stmicroelectronics\st_toolset\stvd\watch\stm8l051f3.inc
PD_IDR                                5010         no  WORD  Internal   ABS     57  private  text         0     0  c:\program files (x86)\stmicroelectronics\st_toolset\stvd\watch\stm8l051f3.inc
PD_DDR                                5011         no  WORD  Internal   ABS     59  private  text         0     0  c:\program files (x86)\stmicroelectronics\st_toolset\stvd\watch\stm8l051f3.inc
PD_CR1                                5012         no  WORD  Internal   ABS     61  private  text         0     0  c:\program files (x86)\stmicroelectronics\st_toolset\stvd\watch\stm8l051f3.inc
PD_CR2                                5013         no  WORD  Internal   ABS     63  private  text         0     0  c:\program files (x86)\stmicroelectronics\st_toolset\stvd\watch\stm8l051f3.inc
PWR_CSR1                              50B2         no  WORD  Internal   ABS    195  private  text         0     0  c:\program files (x86)\stmicroelectronics\st_toolset\stvd\watch\stm8l051f3.inc
PWR_CSR2                              50B3         no  WORD  Internal   ABS    197  private  text         0     0  c:\program files (x86)\stmicroelectronics\st_toolset\stvd\watch\stm8l051f3.inc
PCKEN10                               0000         no  WORD  Internal   ABS     37  private  undef        0     0  -
PCKEN11                               0001         no  WORD  Internal   ABS     38  private  undef        0     0  -
PCKEN12                               0002         no  WORD  Internal   ABS     39  private  undef        0     0  -
PVDE                                  0000         no  WORD  Internal   ABS     42  private  undef        0     0  -
PVDIF                                 0005         no  WORD  Internal   ABS     44  private  undef        0     0  -
PVDOF                                 0006         no  WORD  Internal   ABS     45  private  undef        0     0  -

RST_CR                                50B0         no  WORD  Internal   ABS    188  private  text         0     0  c:\program files (x86)\stmicroelectronics\st_toolset\stvd\watch\stm8l051f3.inc
RST_SR                                50B1         no  WORD  Internal   ABS    190  private  text         0     0  c:\program files (x86)\stmicroelectronics\st_toolset\stvd\watch\stm8l051f3.inc
RTC_TR1                               5140         no  WORD  Internal   ABS    262  private  text         0     0  c:\program files (x86)\stmicroelectronics\st_toolset\stvd\watch\stm8l051f3.inc
RTC_TR2                               5141         no  WORD  Internal   ABS    264  private  text         0     0  c:\program files (x86)\stmicroelectronics\st_toolset\stvd\watch\stm8l051f3.inc
RTC_TR3                               5142         no  WORD  Internal   ABS    266  private  text         0     0  c:\program files (x86)\stmicroelectronics\st_toolset\stvd\watch\stm8l051f3.inc
RTC_DR1                               5144         no  WORD  Internal   ABS    268  private  text         0     0  c:\program files (x86)\stmicroelectronics\st_toolset\stvd\watch\stm8l051f3.inc
RTC_DR2                               5145         no  WORD  Internal   ABS    270  private  text         0     0  c:\program files (x86)\stmicroelectronics\st_toolset\stvd\watch\stm8l051f3.inc
RTC_DR3                               5146         no  WORD  Internal   ABS    272  private  text         0     0  c:\program files (x86)\stmicroelectronics\st_toolset\stvd\watch\stm8l051f3.inc
RTC_CR1                               5148         no  WORD  Internal   ABS    274  private  text         0     0  c:\program files (x86)\stmicroelectronics\st_toolset\stvd\watch\stm8l051f3.inc
RTC_CR2                               5149         no  WORD  Internal   ABS    276  private  text         0     0  c:\program files (x86)\stmicroelectronics\st_toolset\stvd\watch\stm8l051f3.inc
RTC_CR3                               514A         no  WORD  Internal   ABS    278  private  text         0     0  c:\program files (x86)\stmicroelectronics\st_toolset\stvd\watch\stm8l051f3.inc
RTC_ISR1                              514C         no  WORD  Internal   ABS    280  private  text         0     0  c:\program files (x86)\stmicroelectronics\st_toolset\stvd\watch\stm8l051f3.inc
RTC_ISR2                              514D         no  WORD  Internal   ABS    282  private  text         0     0  c:\program files (x86)\stmicroelectronics\st_toolset\stvd\watch\stm8l051f3.inc
STMicroelectronics list file postprocessor v1.01   (C)2009-2023   Sat Aug 12 20:15:59 2023
Page 41  Assembler
                                               c:\program files (x86)\stmicroelectronics\st_toolset\stvd\watch\procedures.asm

RTC_SPRERH                            5150         no  WORD  Internal   ABS    284  private  text         0     0  c:\program files (x86)\stmicroelectronics\st_toolset\stvd\watch\stm8l051f3.inc
RTC_SPRERL                            5151         no  WORD  Internal   ABS    286  private  text         0     0  c:\program files (x86)\stmicroelectronics\st_toolset\stvd\watch\stm8l051f3.inc
RTC_APRER                             5152         no  WORD  Internal   ABS    288  private  text         0     0  c:\program files (x86)\stmicroelectronics\st_toolset\stvd\watch\stm8l051f3.inc
RTC_WUTRH                             5154         no  WORD  Internal   ABS    290  private  text         0     0  c:\program files (x86)\stmicroelectronics\st_toolset\stvd\watch\stm8l051f3.inc
RTC_WUTRL                             5155         no  WORD  Internal   ABS    292  private  text         0     0  c:\program files (x86)\stmicroelectronics\st_toolset\stvd\watch\stm8l051f3.inc
RTC_SSRH                              5157         no  WORD  Internal   ABS    294  private  text         0     0  c:\program files (x86)\stmicroelectronics\st_toolset\stvd\watch\stm8l051f3.inc
RTC_SSRL                              5158         no  WORD  Internal   ABS    296  private  text         0     0  c:\program files (x86)\stmicroelectronics\st_toolset\stvd\watch\stm8l051f3.inc
RTC_WPR                               5159         no  WORD  Internal   ABS    298  private  text         0     0  c:\program files (x86)\stmicroelectronics\st_toolset\stvd\watch\stm8l051f3.inc
RTC_SHIFTRH                           515A         no  WORD  Internal   ABS    300  private  text         0     0  c:\program files (x86)\stmicroelectronics\st_toolset\stvd\watch\stm8l051f3.inc
RTC_SHIFTRL                           515B         no  WORD  Internal   ABS    302  private  text         0     0  c:\program files (x86)\stmicroelectronics\st_toolset\stvd\watch\stm8l051f3.inc
RTC_ALRMAR1                           515C         no  WORD  Internal   ABS    304  private  text         0     0  c:\program files (x86)\stmicroelectronics\st_toolset\stvd\watch\stm8l051f3.inc
RTC_ALRMAR2                           515D         no  WORD  Internal   ABS    306  private  text         0     0  c:\program files (x86)\stmicroelectronics\st_toolset\stvd\watch\stm8l051f3.inc
RTC_ALRMAR3                           515E         no  WORD  Internal   ABS    308  private  text         0     0  c:\program files (x86)\stmicroelectronics\st_toolset\stvd\watch\stm8l051f3.inc
RTC_ALRMAR4                           515F         no  WORD  Internal   ABS    310  private  text         0     0  c:\program files (x86)\stmicroelectronics\st_toolset\stvd\watch\stm8l051f3.inc
RTC_ALRMASSRH                         5164         no  WORD  Internal   ABS    312  private  text         0     0  c:\program files (x86)\stmicroelectronics\st_toolset\stvd\watch\stm8l051f3.inc
RTC_ALRMASSRL                         5165         no  WORD  Internal   ABS    314  private  text         0     0  c:\program files (x86)\stmicroelectronics\st_toolset\stvd\watch\stm8l051f3.inc
RTC_ALRMASSMSKR                       5166         no  WORD  Internal   ABS    316  private  text         0     0  c:\program files (x86)\stmicroelectronics\st_toolset\stvd\watch\stm8l051f3.inc
RTC_CALRH                             516A         no  WORD  Internal   ABS    318  private  text         0     0  c:\program files (x86)\stmicroelectronics\st_toolset\stvd\watch\stm8l051f3.inc
RTC_CALRL                             516B         no  WORD  Internal   ABS    320  private  text         0     0  c:\program files (x86)\stmicroelectronics\st_toolset\stvd\watch\stm8l051f3.inc
RTC_TCR1                              516C         no  WORD  Internal   ABS    322  private  text         0     0  c:\program files (x86)\stmicroelectronics\st_toolset\stvd\watch\stm8l051f3.inc
RTC_TCR2                              516D         no  WORD  Internal   ABS    324  private  text         0     0  c:\program files (x86)\stmicroelectronics\st_toolset\stvd\watch\stm8l051f3.inc
RI_ICR1                               5431         no  WORD  Internal   ABS    576  private  text         0     0  c:\program files (x86)\stmicroelectronics\st_toolset\stvd\watch\stm8l051f3.inc
RI_ICR2                               5432         no  WORD  Internal   ABS    578  private  text         0     0  c:\program files (x86)\stmicroelectronics\st_toolset\stvd\watch\stm8l051f3.inc
RI_IOIR1                              5433         no  WORD  Internal   ABS    580  private  text         0     0  c:\program files (x86)\stmicroelectronics\st_toolset\stvd\watch\stm8l051f3.inc
RI_IOIR2                              5434         no  WORD  Internal   ABS    582  private  text         0     0  c:\program files (x86)\stmicroelectronics\st_toolset\stvd\watch\stm8l051f3.inc
RI_IOIR3                              5435         no  WORD  Internal   ABS    584  private  text         0     0  c:\program files (x86)\stmicroelectronics\st_toolset\stvd\watch\stm8l051f3.inc
RI_IOCMR1                             5436         no  WORD  Internal   ABS    586  private  text         0     0  c:\program files (x86)\stmicroelectronics\st_toolset\stvd\watch\stm8l051f3.inc
RI_IOCMR2                             5437         no  WORD  Internal   ABS    588  private  text         0     0  c:\program files (x86)\stmicroelectronics\st_toolset\stvd\watch\stm8l051f3.inc
RI_IOCMR3                             5438         no  WORD  Internal   ABS    590  private  text         0     0  c:\program files (x86)\stmicroelectronics\st_toolset\stvd\watch\stm8l051f3.inc
RI_IOSR1                              5439         no  WORD  Internal   ABS    592  private  text         0     0  c:\program files (x86)\stmicroelectronics\st_toolset\stvd\watch\stm8l051f3.inc
RI_IOSR2                              543A         no  WORD  Internal   ABS    594  private  text         0     0  c:\program files (x86)\stmicroelectronics\st_toolset\stvd\watch\stm8l051f3.inc
RI_IOSR3                              543B         no  WORD  Internal   ABS    596  private  text         0     0  c:\program files (x86)\stmicroelectronics\st_toolset\stvd\watch\stm8l051f3.inc
RI_IOGCR                              543C         no  WORD  Internal   ABS    598  private  text         0     0  c:\program files (x86)\stmicroelectronics\st_toolset\stvd\watch\stm8l051f3.inc
RI_ASCR1                              543D         no  WORD  Internal   ABS    600  private  text         0     0  c:\program files (x86)\stmicroelectronics\st_toolset\stvd\watch\stm8l051f3.inc
RI_ASCR2                              543E         no  WORD  Internal   ABS    602  private  text         0     0  c:\program files (x86)\stmicroelectronics\st_toolset\stvd\watch\stm8l051f3.inc
RI_RCR                                543F         no  WORD  Internal   ABS    604  private  text         0     0  c:\program files (x86)\stmicroelectronics\st_toolset\stvd\watch\stm8l051f3.inc
RI_CR                                 5450         no  WORD  Internal   ABS    606  private  text         0     0  c:\program files (x86)\stmicroelectronics\st_toolset\stvd\watch\stm8l051f3.inc
RI_MASKR1                             5451         no  WORD  Internal   ABS    608  private  text         0     0  c:\program files (x86)\stmicroelectronics\st_toolset\stvd\watch\stm8l051f3.inc
RI_MASKR2                             5452         no  WORD  Internal   ABS    610  private  text         0     0  c:\program files (x86)\stmicroelectronics\st_toolset\stvd\watch\stm8l051f3.inc
RI_MASKR3                             5453         no  WORD  Internal   ABS    612  private  text         0     0  c:\program files (x86)\stmicroelectronics\st_toolset\stvd\watch\stm8l051f3.inc
RI_MASKR4                             5454         no  WORD  Internal   ABS    614  private  text         0     0  c:\program files (x86)\stmicroelectronics\st_toolset\stvd\watch\stm8l051f3.inc
RI_IOIR4                              5455         no  WORD  Internal   ABS    616  private  text         0     0  c:\program files (x86)\stmicroelectronics\st_toolset\stvd\watch\stm8l051f3.inc
RI_IOCMR4                             5456         no  WORD  Internal   ABS    618  private  text         0     0  c:\program files (x86)\stmicroelectronics\st_toolset\stvd\watch\stm8l051f3.inc
RI_IOSR4                              5457         no  WORD  Internal   ABS    620  private  text         0     0  c:\program files (x86)\stmicroelectronics\st_toolset\stvd\watch\stm8l051f3.inc
RSF                                   0005         no  WORD  Internal   ABS     32  private  undef        0     0  -
RECALPF                               0001         no  WORD  Internal   ABS     48  private  undef        0     0  -

SYSCFG_RMPCR3                         509D         no  WORD  Internal   ABS    146  private  text         0     0  c:\program files (x86)\stmicroelectronics\st_toolset\stvd\watch\stm8l051f3.inc
SYSCFG_RMPCR1                         509E         no  WORD  Internal   ABS    148  private  text         0     0  c:\program files (x86)\stmicroelectronics\st_toolset\stvd\watch\stm8l051f3.inc
SYSCFG_RMPCR2                         509F         no  WORD  Internal   ABS    150  private  text         0     0  c:\program files (x86)\stmicroelectronics\st_toolset\stvd\watch\stm8l051f3.inc
SPI1_CR1                              5200         no  WORD  Internal   ABS    334  private  text         0     0  c:\program files (x86)\stmicroelectronics\st_toolset\stvd\watch\stm8l051f3.inc
SPI1_CR2                              5201         no  WORD  Internal   ABS    336  private  text         0     0  c:\program files (x86)\stmicroelectronics\st_toolset\stvd\watch\stm8l051f3.inc
SPI1_ICR                              5202         no  WORD  Internal   ABS    338  private  text         0     0  c:\program files (x86)\stmicroelectronics\st_toolset\stvd\watch\stm8l051f3.inc
SPI1_SR                               5203         no  WORD  Internal   ABS    340  private  text         0     0  c:\program files (x86)\stmicroelectronics\st_toolset\stvd\watch\stm8l051f3.inc
SPI1_DR                               5204         no  WORD  Internal   ABS    342  private  text         0     0  c:\program files (x86)\stmicroelectronics\st_toolset\stvd\watch\stm8l051f3.inc
SPI1_CRCPR                            5205         no  WORD  Internal   ABS    344  private  text         0     0  c:\program files (x86)\stmicroelectronics\st_toolset\stvd\watch\stm8l051f3.inc
SPI1_RXCRCR                           5206         no  WORD  Internal   ABS    346  private  text         0     0  c:\program files (x86)\stmicroelectronics\st_toolset\stvd\watch\stm8l051f3.inc
STMicroelectronics list file postprocessor v1.01   (C)2009-2023   Sat Aug 12 20:15:59 2023
Page 42  Assembler
                                               c:\program files (x86)\stmicroelectronics\st_toolset\stvd\watch\procedures.asm

SPI1_TXCRCR                           5207         no  WORD  Internal   ABS    348  private  text         0     0  c:\program files (x86)\stmicroelectronics\st_toolset\stvd\watch\stm8l051f3.inc

TIM2_CR1                              5250         no  WORD  Internal   ABS    411  private  text         0     0  c:\program files (x86)\stmicroelectronics\st_toolset\stvd\watch\stm8l051f3.inc
TIM2_CR2                              5251         no  WORD  Internal   ABS    413  private  text         0     0  c:\program files (x86)\stmicroelectronics\st_toolset\stvd\watch\stm8l051f3.inc
TIM2_SMCR                             5252         no  WORD  Internal   ABS    415  private  text         0     0  c:\program files (x86)\stmicroelectronics\st_toolset\stvd\watch\stm8l051f3.inc
TIM2_ETR                              5253         no  WORD  Internal   ABS    417  private  text         0     0  c:\program files (x86)\stmicroelectronics\st_toolset\stvd\watch\stm8l051f3.inc
TIM2_DER                              5254         no  WORD  Internal   ABS    419  private  text         0     0  c:\program files (x86)\stmicroelectronics\st_toolset\stvd\watch\stm8l051f3.inc
TIM2_IER                              5255         no  WORD  Internal   ABS    421  private  text         0     0  c:\program files (x86)\stmicroelectronics\st_toolset\stvd\watch\stm8l051f3.inc
TIM2_SR1                              5256         no  WORD  Internal   ABS    423  private  text         0     0  c:\program files (x86)\stmicroelectronics\st_toolset\stvd\watch\stm8l051f3.inc
TIM2_SR2                              5257         no  WORD  Internal   ABS    425  private  text         0     0  c:\program files (x86)\stmicroelectronics\st_toolset\stvd\watch\stm8l051f3.inc
TIM2_EGR                              5258         no  WORD  Internal   ABS    427  private  text         0     0  c:\program files (x86)\stmicroelectronics\st_toolset\stvd\watch\stm8l051f3.inc
TIM2_CCMR1                            5259         no  WORD  Internal   ABS    429  private  text         0     0  c:\program files (x86)\stmicroelectronics\st_toolset\stvd\watch\stm8l051f3.inc
TIM2_CCMR2                            525A         no  WORD  Internal   ABS    431  private  text         0     0  c:\program files (x86)\stmicroelectronics\st_toolset\stvd\watch\stm8l051f3.inc
TIM2_CCER1                            525B         no  WORD  Internal   ABS    433  private  text         0     0  c:\program files (x86)\stmicroelectronics\st_toolset\stvd\watch\stm8l051f3.inc
TIM2_CNTRH                            525C         no  WORD  Internal   ABS    435  private  text         0     0  c:\program files (x86)\stmicroelectronics\st_toolset\stvd\watch\stm8l051f3.inc
TIM2_CNTRL                            525D         no  WORD  Internal   ABS    437  private  text         0     0  c:\program files (x86)\stmicroelectronics\st_toolset\stvd\watch\stm8l051f3.inc
TIM2_PSCR                             525E         no  WORD  Internal   ABS    439  private  text         0     0  c:\program files (x86)\stmicroelectronics\st_toolset\stvd\watch\stm8l051f3.inc
TIM2_ARRH                             525F         no  WORD  Internal   ABS    441  private  text         0     0  c:\program files (x86)\stmicroelectronics\st_toolset\stvd\watch\stm8l051f3.inc
TIM2_ARRL                             5260         no  WORD  Internal   ABS    443  private  text         0     0  c:\program files (x86)\stmicroelectronics\st_toolset\stvd\watch\stm8l051f3.inc
TIM2_CCR1H                            5261         no  WORD  Internal   ABS    445  private  text         0     0  c:\program files (x86)\stmicroelectronics\st_toolset\stvd\watch\stm8l051f3.inc
TIM2_CCR1L                            5262         no  WORD  Internal   ABS    447  private  text         0     0  c:\program files (x86)\stmicroelectronics\st_toolset\stvd\watch\stm8l051f3.inc
TIM2_CCR2H                            5263         no  WORD  Internal   ABS    449  private  text         0     0  c:\program files (x86)\stmicroelectronics\st_toolset\stvd\watch\stm8l051f3.inc
TIM2_CCR2L                            5264         no  WORD  Internal   ABS    451  private  text         0     0  c:\program files (x86)\stmicroelectronics\st_toolset\stvd\watch\stm8l051f3.inc
TIM2_BKR                              5265         no  WORD  Internal   ABS    453  private  text         0     0  c:\program files (x86)\stmicroelectronics\st_toolset\stvd\watch\stm8l051f3.inc
TIM2_OISR                             5266         no  WORD  Internal   ABS    455  private  text         0     0  c:\program files (x86)\stmicroelectronics\st_toolset\stvd\watch\stm8l051f3.inc
TIM3_CR1                              5280         no  WORD  Internal   ABS    460  private  text         0     0  c:\program files (x86)\stmicroelectronics\st_toolset\stvd\watch\stm8l051f3.inc
TIM3_CR2                              5281         no  WORD  Internal   ABS    462  private  text         0     0  c:\program files (x86)\stmicroelectronics\st_toolset\stvd\watch\stm8l051f3.inc
TIM3_SMCR                             5282         no  WORD  Internal   ABS    464  private  text         0     0  c:\program files (x86)\stmicroelectronics\st_toolset\stvd\watch\stm8l051f3.inc
TIM3_ETR                              5283         no  WORD  Internal   ABS    466  private  text         0     0  c:\program files (x86)\stmicroelectronics\st_toolset\stvd\watch\stm8l051f3.inc
TIM3_DER                              5284         no  WORD  Internal   ABS    468  private  text         0     0  c:\program files (x86)\stmicroelectronics\st_toolset\stvd\watch\stm8l051f3.inc
TIM3_IER                              5285         no  WORD  Internal   ABS    470  private  text         0     0  c:\program files (x86)\stmicroelectronics\st_toolset\stvd\watch\stm8l051f3.inc
TIM3_SR1                              5286         no  WORD  Internal   ABS    472  private  text         0     0  c:\program files (x86)\stmicroelectronics\st_toolset\stvd\watch\stm8l051f3.inc
TIM3_SR2                              5287         no  WORD  Internal   ABS    474  private  text         0     0  c:\program files (x86)\stmicroelectronics\st_toolset\stvd\watch\stm8l051f3.inc
TIM3_EGR                              5288         no  WORD  Internal   ABS    476  private  text         0     0  c:\program files (x86)\stmicroelectronics\st_toolset\stvd\watch\stm8l051f3.inc
TIM3_CCMR1                            5289         no  WORD  Internal   ABS    478  private  text         0     0  c:\program files (x86)\stmicroelectronics\st_toolset\stvd\watch\stm8l051f3.inc
TIM3_CCMR2                            528A         no  WORD  Internal   ABS    480  private  text         0     0  c:\program files (x86)\stmicroelectronics\st_toolset\stvd\watch\stm8l051f3.inc
TIM3_CCER1                            528B         no  WORD  Internal   ABS    482  private  text         0     0  c:\program files (x86)\stmicroelectronics\st_toolset\stvd\watch\stm8l051f3.inc
TIM3_CNTRH                            528C         no  WORD  Internal   ABS    484  private  text         0     0  c:\program files (x86)\stmicroelectronics\st_toolset\stvd\watch\stm8l051f3.inc
TIM3_CNTRL                            528D         no  WORD  Internal   ABS    486  private  text         0     0  c:\program files (x86)\stmicroelectronics\st_toolset\stvd\watch\stm8l051f3.inc
TIM3_PSCR                             528E         no  WORD  Internal   ABS    488  private  text         0     0  c:\program files (x86)\stmicroelectronics\st_toolset\stvd\watch\stm8l051f3.inc
TIM3_ARRH                             528F         no  WORD  Internal   ABS    490  private  text         0     0  c:\program files (x86)\stmicroelectronics\st_toolset\stvd\watch\stm8l051f3.inc
TIM3_ARRL                             5290         no  WORD  Internal   ABS    492  private  text         0     0  c:\program files (x86)\stmicroelectronics\st_toolset\stvd\watch\stm8l051f3.inc
TIM3_CCR1H                            5291         no  WORD  Internal   ABS    494  private  text         0     0  c:\program files (x86)\stmicroelectronics\st_toolset\stvd\watch\stm8l051f3.inc
TIM3_CCR1L                            5292         no  WORD  Internal   ABS    496  private  text         0     0  c:\program files (x86)\stmicroelectronics\st_toolset\stvd\watch\stm8l051f3.inc
TIM3_CCR2H                            5293         no  WORD  Internal   ABS    498  private  text         0     0  c:\program files (x86)\stmicroelectronics\st_toolset\stvd\watch\stm8l051f3.inc
TIM3_CCR2L                            5294         no  WORD  Internal   ABS    500  private  text         0     0  c:\program files (x86)\stmicroelectronics\st_toolset\stvd\watch\stm8l051f3.inc
TIM3_BKR                              5295         no  WORD  Internal   ABS    502  private  text         0     0  c:\program files (x86)\stmicroelectronics\st_toolset\stvd\watch\stm8l051f3.inc
TIM3_OISR                             5296         no  WORD  Internal   ABS    504  private  text         0     0  c:\program files (x86)\stmicroelectronics\st_toolset\stvd\watch\stm8l051f3.inc
TIM4_CR1                              52E0         no  WORD  Internal   ABS    509  private  text         0     0  c:\program files (x86)\stmicroelectronics\st_toolset\stvd\watch\stm8l051f3.inc
TIM4_CR2                              52E1         no  WORD  Internal   ABS    511  private  text         0     0  c:\program files (x86)\stmicroelectronics\st_toolset\stvd\watch\stm8l051f3.inc
TIM4_SMCR                             52E2         no  WORD  Internal   ABS    513  private  text         0     0  c:\program files (x86)\stmicroelectronics\st_toolset\stvd\watch\stm8l051f3.inc
TIM4_DER                              52E3         no  WORD  Internal   ABS    515  private  text         0     0  c:\program files (x86)\stmicroelectronics\st_toolset\stvd\watch\stm8l051f3.inc
TIM4_IER                              52E4         no  WORD  Internal   ABS    517  private  text         0     0  c:\program files (x86)\stmicroelectronics\st_toolset\stvd\watch\stm8l051f3.inc
TIM4_SR1                              52E5         no  WORD  Internal   ABS    519  private  text         0     0  c:\program files (x86)\stmicroelectronics\st_toolset\stvd\watch\stm8l051f3.inc
TIM4_EGR                              52E6         no  WORD  Internal   ABS    521  private  text         0     0  c:\program files (x86)\stmicroelectronics\st_toolset\stvd\watch\stm8l051f3.inc
TIM4_CNTR                             52E7         no  WORD  Internal   ABS    523  private  text         0     0  c:\program files (x86)\stmicroelectronics\st_toolset\stvd\watch\stm8l051f3.inc
TIM4_PSCR                             52E8         no  WORD  Internal   ABS    525  private  text         0     0  c:\program files (x86)\stmicroelectronics\st_toolset\stvd\watch\stm8l051f3.inc
STMicroelectronics list file postprocessor v1.01   (C)2009-2023   Sat Aug 12 20:15:59 2023
Page 43  Assembler
                                               c:\program files (x86)\stmicroelectronics\st_toolset\stvd\watch\procedures.asm

TIM4_ARR                              52E9         no  WORD  Internal   ABS    527  private  text         0     0  c:\program files (x86)\stmicroelectronics\st_toolset\stvd\watch\stm8l051f3.inc

USART1_SR                             5230         no  WORD  Internal   ABS    386  private  text         0     0  c:\program files (x86)\stmicroelectronics\st_toolset\stvd\watch\stm8l051f3.inc
USART1_DR                             5231         no  WORD  Internal   ABS    388  private  text         0     0  c:\program files (x86)\stmicroelectronics\st_toolset\stvd\watch\stm8l051f3.inc
USART1_BRR1                           5232         no  WORD  Internal   ABS    390  private  text         0     0  c:\program files (x86)\stmicroelectronics\st_toolset\stvd\watch\stm8l051f3.inc
USART1_BRR2                           5233         no  WORD  Internal   ABS    392  private  text         0     0  c:\program files (x86)\stmicroelectronics\st_toolset\stvd\watch\stm8l051f3.inc
USART1_CR1                            5234         no  WORD  Internal   ABS    394  private  text         0     0  c:\program files (x86)\stmicroelectronics\st_toolset\stvd\watch\stm8l051f3.inc
USART1_CR2                            5235         no  WORD  Internal   ABS    396  private  text         0     0  c:\program files (x86)\stmicroelectronics\st_toolset\stvd\watch\stm8l051f3.inc
USART1_CR3                            5236         no  WORD  Internal   ABS    398  private  text         0     0  c:\program files (x86)\stmicroelectronics\st_toolset\stvd\watch\stm8l051f3.inc
USART1_CR4                            5237         no  WORD  Internal   ABS    400  private  text         0     0  c:\program files (x86)\stmicroelectronics\st_toolset\stvd\watch\stm8l051f3.inc
USART1_CR5                            5238         no  WORD  Internal   ABS    402  private  text         0     0  c:\program files (x86)\stmicroelectronics\st_toolset\stvd\watch\stm8l051f3.inc
USART1_GTR                            5239         no  WORD  Internal   ABS    404  private  text         0     0  c:\program files (x86)\stmicroelectronics\st_toolset\stvd\watch\stm8l051f3.inc
USART1_PSCR                           523A         no  WORD  Internal   ABS    406  private  text         0     0  c:\program files (x86)\stmicroelectronics\st_toolset\stvd\watch\stm8l051f3.inc
UIF                                   0000         no  WORD  Internal   ABS     29  private  undef        0     0  -

VREFINTF                              0000         no  WORD  Internal   ABS     43  private  undef        0     0  -

WFE_CR1                               50A6         no  WORD  Internal   ABS    170  private  text         0     0  c:\program files (x86)\stmicroelectronics\st_toolset\stvd\watch\stm8l051f3.inc
WFE_CR2                               50A7         no  WORD  Internal   ABS    172  private  text         0     0  c:\program files (x86)\stmicroelectronics\st_toolset\stvd\watch\stm8l051f3.inc
WFE_CR3                               50A8         no  WORD  Internal   ABS    174  private  text         0     0  c:\program files (x86)\stmicroelectronics\st_toolset\stvd\watch\stm8l051f3.inc
WFE_CR4                               50A9         no  WORD  Internal   ABS    176  private  text         0     0  c:\program files (x86)\stmicroelectronics\st_toolset\stvd\watch\stm8l051f3.inc
WWDG_CR                               50D3         no  WORD  Internal   ABS    239  private  text         0     0  c:\program files (x86)\stmicroelectronics\st_toolset\stvd\watch\stm8l051f3.inc
WWDG_WR                               50D4         no  WORD  Internal   ABS    241  private  text         0     0  c:\program files (x86)\stmicroelectronics\st_toolset\stvd\watch\stm8l051f3.inc
WUTWF                                 0002         no  WORD  Internal   ABS     51  private  undef        0     0  -
WUTE                                  0002         no  WORD  Internal   ABS     52  private  undef        0     0  -
WUTF                                  0002         no  WORD  Internal   ABS     53  private  undef        0     0  -
WUCKSEL0                              0000         no  WORD  Internal   ABS     54  private  undef        0     0  -
WUCKSEL1                              0001         no  WORD  Internal   ABS     55  private  undef        0     0  -
WUCKSEL2                              0002         no  WORD  Internal   ABS     56  private  undef        0     0  -
WUT_setup_hrly                        96E6         no  WORD  Internal   ABS   1203  private  text         4     0  -
WUT_setup_play                        96FC         no  WORD  Internal   ABS   1212  public   text         4     0  -

bcd_dec                               8752         no  WORD  Internal   ABS     12  private  text         0     0  -
byte1                                 000C         no  WORD  Internal   ABS     14  private  text         0     0  -
byte2                                 000D         no  WORD  Internal   ABS     15  private  text         0     0  -
beeperflag                            0004         no  WORD  Internal   ABS     20  private  text         0     0  -
bottom_mm                             918F         no  WORD  Internal   ABS    600  private  text        12     0  -
bottom_hh                             91FF         no  WORD  Internal   ABS    644  private  text        15     0  -
bottom_mt                             927A         no  WORD  Internal   ABS    693  private  text        16     0  -
bottom_dd                             9306         no  WORD  Internal   ABS    749  private  text        12     0  -
bottom_wd                             937D         no  WORD  Internal   ABS    802  private  text        23     0  -
bottom_yyyy                           93F8         no  WORD  Internal   ABS    859  private  text        12     0  -
bottom_amm                            9468         no  WORD  Internal   ABS    906  private  text        12     0  -
bottom_ahh                            94E4         no  WORD  Internal   ABS    957  private  text        12     0  -
bottom_melody                         9543         no  WORD  Internal   ABS    998  private  text         9     0  -

cls                                   8962         no  WORD  Internal   ABS     10  private  text         0     0  -
calibr                                001A         no  WORD  Internal   ABS     24  private  text         0     0  -
clbrv_neg                             9594         no  WORD  Internal   ABS   1041  private  text        11     0  -
change_sign                           959F         no  WORD  Internal   ABS   1047  private  text         7     0  -
clbrv_pos                             95F6         no  WORD  Internal   ABS   1093  private  text        21     0  -
corr_daystab                          9662         no  WORD  Internal   ABS   1145  public   text        39     0  -
check_hrly                            96AE         no  WORD  Internal   ABS   1178  private  text         6     0  -

date                                  001F         no  WORD  Internal   ABS      7  private  text         0     0  -
delay                                 8DAA         no  WORD  Internal   ABS     67  public   text        29     0  -
dec_bcd                               876C         no  WORD  Internal   ABS     13  private  text         0     0  -
STMicroelectronics list file postprocessor v1.01   (C)2009-2023   Sat Aug 12 20:15:59 2023
Page 44  Assembler
                                               c:\program files (x86)\stmicroelectronics\st_toolset\stvd\watch\procedures.asm

daystab                               108A         no  WORD  Internal   ABS     18  private  text         0     0  -
dec_mm                                919B         no  WORD  Internal   ABS    607  public   text        40     0  -
dec_hh                                920E         no  WORD  Internal   ABS    652  public   text        40     0  -
dec_mt                                928A         no  WORD  Internal   ABS    702  public   text        48     0  -
dec_dd                                9312         no  WORD  Internal   ABS    756  public   text        40     0  -
dec_wd                                9394         no  WORD  Internal   ABS    813  public   text        42     0  -
dec_yyyy                              9404         no  WORD  Internal   ABS    866  public   text        35     0  -
dec_amm                               9474         no  WORD  Internal   ABS    913  public   text        45     0  -
dec_ahh                               94F0         no  WORD  Internal   ABS    964  public   text        45     0  -
dec_melody                            954C         no  WORD  Internal   ABS   1003  public   text        16     0  -
dec_clbr                              95DC         no  WORD  Internal   ABS   1077  public   text        26     0  -

end_incr                              95DB         no  WORD  Internal   ABS   1074  private  text         1     0  -
end_decr                              9617         no  WORD  Internal   ABS   1111  private  text         1     0  -

get_wd_string                         87C5         no  WORD  Internal   ABS     17  private  text         0     0  -

hours                                 001E         no  WORD  Internal   ABS      6  private  text         0     0  -
hrly                                  0023         no  WORD  Internal   ABS     25  private  text         0     0  -
hrly_on                               96B4         no  WORD  Internal   ABS   1181  private  text        39     0  -

inc_mm                                9167         no  WORD  Internal   ABS    586  public   text        40     0  -
inc_hh                                91D7         no  WORD  Internal   ABS    630  public   text        40     0  -
inc_mt                                924A         no  WORD  Internal   ABS    675  public   text        48     0  -
inc_dd                                92D3         no  WORD  Internal   ABS    731  public   text        51     0  -
inc_wd                                9353         no  WORD  Internal   ABS    781  public   text        42     0  -
inc_yyyy                              93D5         no  WORD  Internal   ABS    845  public   text        35     0  -
inc_amm                               943B         no  WORD  Internal   ABS    889  public   text        45     0  -
inc_ahh                               94B7         no  WORD  Internal   ABS    940  public   text        45     0  -
inc_melody                            9533         no  WORD  Internal   ABS    991  public   text        16     0  -
inc_clbr                              9572         no  WORD  Internal   ABS   1021  public   text        34     0  -

key1flag                              0024         no  WORD  Internal   ABS     59  public   bss          1     1  -
key2flag                              0025         no  WORD  Internal   ABS     60  public   bss          1     1  -
key3flag                              0026         no  WORD  Internal   ABS     61  public   bss          1     1  -
key4flag                              0027         no  WORD  Internal   ABS     62  public   bss          1     1  -
keyparse                              8DC7         no  WORD  Internal   ABS     79  public   text        10     0  -
key1parse                             8DD1         no  WORD  Internal   ABS     85  private  text        74     0  -
key1_mode1                            8E1B         no  WORD  Internal   ABS    125  private  text        11     0  -
key1_mode2                            8E26         no  WORD  Internal   ABS    130  private  text         5     0  -
key1_mode21                           8E2B         no  WORD  Internal   ABS    135  private  text        14     0  -
key1_mode11                           8E39         no  WORD  Internal   ABS    141  private  text         4     0  -
key1_mode13                           8E3D         no  WORD  Internal   ABS    144  private  text         4     0  -
key1_mode31                           8E41         no  WORD  Internal   ABS    147  private  text         4     0  -
key1_mode33                           8E45         no  WORD  Internal   ABS    150  private  text         4     0  -
key1_mode41                           8E49         no  WORD  Internal   ABS    153  private  text         4     0  -
key1_mode51                           8E4D         no  WORD  Internal   ABS    156  private  text         4     0  -
key1_mode61                           8E51         no  WORD  Internal   ABS    159  private  text         4     0  -
key1_mode63                           8E55         no  WORD  Internal   ABS    162  private  text         4     0  -
key1_mode65                           8E59         no  WORD  Internal   ABS    165  private  text         4     0  -
key1_mode66                           8E5D         no  WORD  Internal   ABS    168  private  text         4     0  -
key1_mode81                           8E61         no  WORD  Internal   ABS    171  private  text         4     0  -
key1_mode91                           8E65         no  WORD  Internal   ABS    174  private  text         4     0  -
keyparse2                             8E69         no  WORD  Internal   ABS    178  private  text         8     0  -
key2parse                             8E71         no  WORD  Internal   ABS    183  private  text        74     0  -
key2_mode3                            8EBB         no  WORD  Internal   ABS    223  private  text        11     0  -
key2_mode4                            8EC6         no  WORD  Internal   ABS    228  private  text        11     0  -
STMicroelectronics list file postprocessor v1.01   (C)2009-2023   Sat Aug 12 20:15:59 2023
Page 45  Assembler
                                               c:\program files (x86)\stmicroelectronics\st_toolset\stvd\watch\procedures.asm

key2_mode5                            8ED1         no  WORD  Internal   ABS    233  private  text        11     0  -
key2_mode11                           8EDC         no  WORD  Internal   ABS    238  private  text         4     0  -
key2_mode13                           8EE0         no  WORD  Internal   ABS    241  private  text         4     0  -
key2_mode31                           8EE4         no  WORD  Internal   ABS    244  private  text         4     0  -
key2_mode33                           8EE8         no  WORD  Internal   ABS    247  private  text         4     0  -
key2_mode41                           8EEC         no  WORD  Internal   ABS    250  private  text         4     0  -
key2_mode51                           8EF0         no  WORD  Internal   ABS    253  private  text         4     0  -
key2_mode61                           8EF4         no  WORD  Internal   ABS    256  private  text         4     0  -
key2_mode63                           8EF8         no  WORD  Internal   ABS    259  private  text         4     0  -
key2_mode65                           8EFC         no  WORD  Internal   ABS    262  private  text         4     0  -
key2_mode66                           8F00         no  WORD  Internal   ABS    265  private  text         4     0  -
key2_mode81                           8F04         no  WORD  Internal   ABS    268  private  text         4     0  -
key2_mode91                           8F08         no  WORD  Internal   ABS    271  private  text         4     0  -
keyparse3                             8F0C         no  WORD  Internal   ABS    275  private  text         8     0  -
key3parse                             8F14         no  WORD  Internal   ABS    280  private  text        26     0  -
key3_mode7                            8F2E         no  WORD  Internal   ABS    295  private  text        18     0  -
key3_mode8                            8F40         no  WORD  Internal   ABS    302  private  text        11     0  -
key3_mode9                            8F4B         no  WORD  Internal   ABS    307  private  text        11     0  -
keyparse4                             8F56         no  WORD  Internal   ABS    313  private  text         6     0  -
key4parse                             8F5C         no  WORD  Internal   ABS    318  private  text        68     0  -
key4_beep_off                         8FA0         no  WORD  Internal   ABS    358  private  text         9     0  -
key4_mode21                           8FA9         no  WORD  Internal   ABS    362  private  text         5     0  -
key4_mode22                           8FAE         no  WORD  Internal   ABS    365  private  text        11     0  -
key4_mode11                           8FB9         no  WORD  Internal   ABS    370  private  text         5     0  -
key4_mode12                           8FBE         no  WORD  Internal   ABS    373  private  text         5     0  -
key4_mode14                           8FC3         no  WORD  Internal   ABS    376  private  text        11     0  -
key4_mode31                           8FCE         no  WORD  Internal   ABS    381  private  text         5     0  -
key4_mode32                           8FD3         no  WORD  Internal   ABS    384  private  text         5     0  -
key4_mode34                           8FD8         no  WORD  Internal   ABS    387  private  text        11     0  -
key4_mode41                           8FE3         no  WORD  Internal   ABS    392  private  text         5     0  -
key4_mode42                           8FE8         no  WORD  Internal   ABS    395  private  text        11     0  -
key4_mode51                           8FF3         no  WORD  Internal   ABS    400  private  text         5     0  -
key4_mode52                           8FF8         no  WORD  Internal   ABS    403  private  text        11     0  -
key4parse2                            9003         no  WORD  Internal   ABS    409  private  text        45     0  -
key4_mode6                            9030         no  WORD  Internal   ABS    435  private  text        11     0  -
key4_mode61                           903B         no  WORD  Internal   ABS    440  private  text         5     0  -
key4_mode62                           9040         no  WORD  Internal   ABS    443  private  text         5     0  -
key4_mode64                           9045         no  WORD  Internal   ABS    446  private  text         9     0  -
key4_mode66                           904E         no  WORD  Internal   ABS    450  private  text         9     0  -
key4_mode81                           9057         no  WORD  Internal   ABS    454  private  text         5     0  -
key4_mode82                           905C         no  WORD  Internal   ABS    457  private  text        11     0  -
key4_mode91                           9067         no  WORD  Internal   ABS    462  private  text         5     0  -
key4_mode92                           906C         no  WORD  Internal   ABS    465  private  text         5     0  -

mode                                  0022         no  WORD  Internal   ABS      3  private  text         0     0  -
minutes                               001D         no  WORD  Internal   ABS      5  private  text         0     0  -
monthweekd                            0020         no  WORD  Internal   ABS      8  private  text         0     0  -
melody                                0005         no  WORD  Internal   ABS     19  private  text         0     0  -

numofdays                             87AE         no  WORD  Internal   ABS     16  private  text         0     0  -
not_leap                              9695         no  WORD  Internal   ABS   1167  private  text        13     0  -

restore_periph                        90F1         no  WORD  Internal   ABS    535  public   text        28     0  -
reset_ss                              912D         no  WORD  Internal   ABS    564  public   text        47     0  -
rec_CALR                              95A6         no  WORD  Internal   ABS   1052  private  text         5     0  -
rec_neg                               95C7         no  WORD  Internal   ABS   1065  private  text        20     0  -
readtime                              961D         no  WORD  Internal   ABS   1118  public   text        31     0  -
STMicroelectronics list file postprocessor v1.01   (C)2009-2023   Sat Aug 12 20:15:59 2023
Page 46  Assembler
                                               c:\program files (x86)\stmicroelectronics\st_toolset\stvd\watch\procedures.asm


seconds                               001C         no  WORD  Internal   ABS      4  private  text         0     0  -
stop                                  83F7         no  WORD  Internal   ABS     21  private  text         0     0  -
set_threshold                         80A6         no  WORD  Internal   ABS     23  private  text         0     0  -
scndslft                              0029         no  WORD  Internal   ABS     64  private  bss          2     2  -
skip_addup                            915C         no  WORD  Internal   ABS    579  private  text        11     0  -
sign_plus_minus                       960B         no  WORD  Internal   ABS   1105  private  text        12     0  -
skip_ss_sbt                           96DB         no  WORD  Internal   ABS   1197  private  text        11     0  -

timerflag                             0028         no  WORD  Internal   ABS     63  public   bss          1     1  -
timerparse                            9071         no  WORD  Internal   ABS    469  public   text         9     0  -
timer_fired                           907A         no  WORD  Internal   ABS    474  private  text        92     0  -
t_mode_halt                           90D6         no  WORD  Internal   ABS    526  public   text        27     0  -
t_mode_flash                          9113         no  WORD  Internal   ABS    551  private  text        11     0  -
t_mode_beep                           911E         no  WORD  Internal   ABS    557  private  text        15     0  -
top_mm                                91C3         no  WORD  Internal   ABS    621  private  text        20     0  -
top_hh                                9236         no  WORD  Internal   ABS    666  private  text        20     0  -
top_mt                                92BA         no  WORD  Internal   ABS    720  private  text        25     0  -
top_dd                                933A         no  WORD  Internal   ABS    770  private  text        25     0  -
top_wd                                93BE         no  WORD  Internal   ABS    834  private  text        23     0  -
top_yyyy                              9427         no  WORD  Internal   ABS    880  private  text        20     0  -
top_amm                               94A1         no  WORD  Internal   ABS    930  private  text        22     0  -
top_ahh                               951D         no  WORD  Internal   ABS    981  private  text        22     0  -
top_melody                            955C         no  WORD  Internal   ABS   1010  private  text         9     0  -
toggle_alrm_arm                       9565         no  WORD  Internal   ABS   1015  public   text        13     0  -
toggle_hrly                           9618         no  WORD  Internal   ABS   1114  private  text         5     0  -

voltage                               0000         no  WORD  Internal   ABS     22  private  text         0     0  -

wait_vref                             910D         no  WORD  Internal   ABS    547  private  text         6     0  -
waitp_REACLPF                         95AB         no  WORD  Internal   ABS   1054  private  text        28     0  -
waitn_REACLPF                         95C7         no  WORD  Internal   ABS   1066  private  text        20     0  -
write_RTC_calendar                    963C         no  WORD  Internal   ABS   1127  public   text        12     0  -
wait_INITF                            9648         no  WORD  Internal   ABS   1131  private  text        10     0  -
wait_RSF                              9652         no  WORD  Internal   ABS   1135  private  text         6     0  -
write_RTC_alarm                       9658         no  WORD  Internal   ABS   1139  public   text        10     0  -
wait_DUL_l                            9689         no  WORD  Internal   ABS   1162  private  text        12     0  -
wait_DUL_nl                           96A2         no  WORD  Internal   ABS   1172  private  text        12     0  -
wait_WUTWF_hrly                       96EA         no  WORD  Internal   ABS   1205  private  text        18     0  -
wait_WUTWF_play                       9700         no  WORD  Internal   ABS   1214  private  text        18     0  -

year                                  0021         no  WORD  Internal   ABS      9  private  text         0     0  -


466 labels
No errors on assembly of 'c:\program files (x86)\stmicroelectronics\st_toolset\stvd\watch\procedures.asm'